; Listing generated by Microsoft (R) Optimizing Compiler Version 15.00.21022.08 

	TITLE	f:\lvdun\trunk\code\GreenShield\DsSetUpHelper\dllmain.cpp
	.686P
	.XMM
	include listing.inc
	.model	flat

INCLUDELIB MSVCRTD
INCLUDELIB OLDNAMES

PUBLIC	??_C@_1BA@JIHHIEDE@?$AAT?$AAy?$AAp?$AAe?$AAL?$AAi?$AAb?$AA?$AA@ ; `string'
PUBLIC	??_C@_1BC@EAHCMADO@?$AAS?$AAo?$AAf?$AAt?$AAw?$AAa?$AAr?$AAe?$AA?$AA@ ; `string'
PUBLIC	??_C@_1O@GBFINDKL@?$AAS?$AAY?$AAS?$AAT?$AAE?$AAM?$AA?$AA@ ; `string'
PUBLIC	??_C@_1BC@IBECJAAI@?$AAS?$AAE?$AAC?$AAU?$AAR?$AAI?$AAT?$AAY?$AA?$AA@ ; `string'
PUBLIC	??_C@_17OMAOINJK@?$AAS?$AAA?$AAM?$AA?$AA@	; `string'
PUBLIC	??_C@_19HLLLM@?$AAM?$AAi?$AAm?$AAe?$AA?$AA@	; `string'
PUBLIC	??_C@_1BC@MAICEHGI@?$AAH?$AAa?$AAr?$AAd?$AAw?$AAa?$AAr?$AAe?$AA?$AA@ ; `string'
PUBLIC	??_C@_1BE@EKPAFMCP@?$AAI?$AAn?$AAt?$AAe?$AAr?$AAf?$AAa?$AAc?$AAe?$AA?$AA@ ; `string'
PUBLIC	??_C@_1BC@NKMMNMGL@?$AAF?$AAi?$AAl?$AAe?$AAT?$AAy?$AAp?$AAe?$AA?$AA@ ; `string'
PUBLIC	??_C@_1CK@OEKPKBNA@?$AAC?$AAo?$AAm?$AAp?$AAo?$AAn?$AAe?$AAn?$AAt?$AA?5?$AAC?$AAa?$AAt?$AAe?$AAg?$AAo?$AAr?$AAi?$AAe?$AAs?$AA?$AA@ ; `string'
PUBLIC	??_C@_1M@KANJNLFF@?$AAC?$AAL?$AAS?$AAI?$AAD?$AA?$AA@ ; `string'
PUBLIC	??_C@_1M@EJNEECMJ@?$AAA?$AAp?$AAp?$AAI?$AAD?$AA?$AA@ ; `string'
PUBLIC	??_C@_1O@JDLOHAN@?$AAD?$AAe?$AAl?$AAe?$AAt?$AAe?$AA?$AA@ ; `string'
PUBLIC	??_C@_1BC@GCKHIPE@?$AAN?$AAo?$AAR?$AAe?$AAm?$AAo?$AAv?$AAe?$AA?$AA@ ; `string'
PUBLIC	??_C@_1BI@JFAIJMHL@?$AAF?$AAo?$AAr?$AAc?$AAe?$AAR?$AAe?$AAm?$AAo?$AAv?$AAe?$AA?$AA@ ; `string'
PUBLIC	??_C@_17LLMMEOJD@?$AAV?$AAa?$AAl?$AA?$AA@	; `string'
PUBLIC	??_C@_13OPKGLAFF@?$AAB?$AA?$AA@			; `string'
PUBLIC	??_C@_13MKMNOPIJ@?$AAD?$AA?$AA@			; `string'
PUBLIC	??_C@_13LHMFKAAD@?$AAM?$AA?$AA@			; `string'
PUBLIC	??_C@_13HADIAKP@?$AAS?$AA?$AA@			; `string'
PUBLIC	??_C@_0P@GHFPNOJB@bad?5allocation?$AA@		; `string'
PUBLIC	?_pAtlAutoThreadModule@ATL@@3PAUIAtlAutoThreadModule@1@A ; ATL::_pAtlAutoThreadModule
PUBLIC	?collate@?$_Locbase@H@std@@2HB			; std::_Locbase<int>::collate
PUBLIC	?ctype@?$_Locbase@H@std@@2HB			; std::_Locbase<int>::ctype
PUBLIC	?monetary@?$_Locbase@H@std@@2HB			; std::_Locbase<int>::monetary
PUBLIC	?numeric@?$_Locbase@H@std@@2HB			; std::_Locbase<int>::numeric
PUBLIC	?time@?$_Locbase@H@std@@2HB			; std::_Locbase<int>::time
PUBLIC	?messages@?$_Locbase@H@std@@2HB			; std::_Locbase<int>::messages
PUBLIC	?all@?$_Locbase@H@std@@2HB			; std::_Locbase<int>::all
PUBLIC	?none@?$_Locbase@H@std@@2HB			; std::_Locbase<int>::none
PUBLIC	?skipws@?$_Iosb@H@std@@2W4_Fmtflags@12@B	; std::_Iosb<int>::skipws
PUBLIC	?unitbuf@?$_Iosb@H@std@@2W4_Fmtflags@12@B	; std::_Iosb<int>::unitbuf
PUBLIC	?uppercase@?$_Iosb@H@std@@2W4_Fmtflags@12@B	; std::_Iosb<int>::uppercase
PUBLIC	?showbase@?$_Iosb@H@std@@2W4_Fmtflags@12@B	; std::_Iosb<int>::showbase
PUBLIC	?showpoint@?$_Iosb@H@std@@2W4_Fmtflags@12@B	; std::_Iosb<int>::showpoint
PUBLIC	?showpos@?$_Iosb@H@std@@2W4_Fmtflags@12@B	; std::_Iosb<int>::showpos
PUBLIC	?left@?$_Iosb@H@std@@2W4_Fmtflags@12@B		; std::_Iosb<int>::left
PUBLIC	?right@?$_Iosb@H@std@@2W4_Fmtflags@12@B		; std::_Iosb<int>::right
PUBLIC	?internal@?$_Iosb@H@std@@2W4_Fmtflags@12@B	; std::_Iosb<int>::internal
PUBLIC	?dec@?$_Iosb@H@std@@2W4_Fmtflags@12@B		; std::_Iosb<int>::dec
PUBLIC	?oct@?$_Iosb@H@std@@2W4_Fmtflags@12@B		; std::_Iosb<int>::oct
PUBLIC	?hex@?$_Iosb@H@std@@2W4_Fmtflags@12@B		; std::_Iosb<int>::hex
PUBLIC	?scientific@?$_Iosb@H@std@@2W4_Fmtflags@12@B	; std::_Iosb<int>::scientific
PUBLIC	?fixed@?$_Iosb@H@std@@2W4_Fmtflags@12@B		; std::_Iosb<int>::fixed
PUBLIC	?hexfloat@?$_Iosb@H@std@@2W4_Fmtflags@12@B	; std::_Iosb<int>::hexfloat
PUBLIC	?boolalpha@?$_Iosb@H@std@@2W4_Fmtflags@12@B	; std::_Iosb<int>::boolalpha
PUBLIC	?_Stdio@?$_Iosb@H@std@@2W4_Fmtflags@12@B	; std::_Iosb<int>::_Stdio
PUBLIC	?adjustfield@?$_Iosb@H@std@@2W4_Fmtflags@12@B	; std::_Iosb<int>::adjustfield
PUBLIC	?basefield@?$_Iosb@H@std@@2W4_Fmtflags@12@B	; std::_Iosb<int>::basefield
PUBLIC	?floatfield@?$_Iosb@H@std@@2W4_Fmtflags@12@B	; std::_Iosb<int>::floatfield
PUBLIC	?goodbit@?$_Iosb@H@std@@2W4_Iostate@12@B	; std::_Iosb<int>::goodbit
PUBLIC	?eofbit@?$_Iosb@H@std@@2W4_Iostate@12@B		; std::_Iosb<int>::eofbit
PUBLIC	?failbit@?$_Iosb@H@std@@2W4_Iostate@12@B	; std::_Iosb<int>::failbit
PUBLIC	?badbit@?$_Iosb@H@std@@2W4_Iostate@12@B		; std::_Iosb<int>::badbit
PUBLIC	?_Hardfail@?$_Iosb@H@std@@2W4_Iostate@12@B	; std::_Iosb<int>::_Hardfail
PUBLIC	?in@?$_Iosb@H@std@@2W4_Openmode@12@B		; std::_Iosb<int>::in
PUBLIC	?out@?$_Iosb@H@std@@2W4_Openmode@12@B		; std::_Iosb<int>::out
PUBLIC	?ate@?$_Iosb@H@std@@2W4_Openmode@12@B		; std::_Iosb<int>::ate
PUBLIC	?app@?$_Iosb@H@std@@2W4_Openmode@12@B		; std::_Iosb<int>::app
PUBLIC	?trunc@?$_Iosb@H@std@@2W4_Openmode@12@B		; std::_Iosb<int>::trunc
PUBLIC	?_Nocreate@?$_Iosb@H@std@@2W4_Openmode@12@B	; std::_Iosb<int>::_Nocreate
PUBLIC	?_Noreplace@?$_Iosb@H@std@@2W4_Openmode@12@B	; std::_Iosb<int>::_Noreplace
PUBLIC	?binary@?$_Iosb@H@std@@2W4_Openmode@12@B	; std::_Iosb<int>::binary
PUBLIC	?beg@?$_Iosb@H@std@@2W4_Seekdir@12@B		; std::_Iosb<int>::beg
PUBLIC	?cur@?$_Iosb@H@std@@2W4_Seekdir@12@B		; std::_Iosb<int>::cur
PUBLIC	?end@?$_Iosb@H@std@@2W4_Seekdir@12@B		; std::_Iosb<int>::end
PUBLIC	?_Min@?$AtlLimits@H@ATL@@2HB			; ATL::AtlLimits<int>::_Min
PUBLIC	?_Max@?$AtlLimits@H@ATL@@2HB			; ATL::AtlLimits<int>::_Max
PUBLIC	?_Min@?$AtlLimits@I@ATL@@2IB			; ATL::AtlLimits<unsigned int>::_Min
PUBLIC	?_Max@?$AtlLimits@I@ATL@@2IB			; ATL::AtlLimits<unsigned int>::_Max
PUBLIC	?_Min@?$AtlLimits@J@ATL@@2JB			; ATL::AtlLimits<long>::_Min
PUBLIC	?_Max@?$AtlLimits@J@ATL@@2JB			; ATL::AtlLimits<long>::_Max
PUBLIC	?_Min@?$AtlLimits@K@ATL@@2KB			; ATL::AtlLimits<unsigned long>::_Min
PUBLIC	?_Max@?$AtlLimits@K@ATL@@2KB			; ATL::AtlLimits<unsigned long>::_Max
PUBLIC	?_Min@?$AtlLimits@_J@ATL@@2_JB			; ATL::AtlLimits<__int64>::_Min
PUBLIC	?_Max@?$AtlLimits@_J@ATL@@2_JB			; ATL::AtlLimits<__int64>::_Max
PUBLIC	?_Min@?$AtlLimits@_K@ATL@@2_KB			; ATL::AtlLimits<unsigned __int64>::_Min
PUBLIC	?_Max@?$AtlLimits@_K@ATL@@2_KB			; ATL::AtlLimits<unsigned __int64>::_Max
PUBLIC	?s_pfnPrevHook@CNoUIAssertHook@ATL@@0P6AHHPADPAH@ZA ; ATL::CNoUIAssertHook::s_pfnPrevHook
PUBLIC	?m_bInitFailed@CAtlBaseModule@ATL@@2_NA		; ATL::CAtlBaseModule::m_bInitFailed
PUBLIC	?VT@?$CVarTypeInfo@D@ATL@@2GB			; ATL::CVarTypeInfo<char>::VT
PUBLIC	?pmField@?$CVarTypeInfo@D@ATL@@2QQtagVARIANT@@DQ3@ ; ATL::CVarTypeInfo<char>::pmField
PUBLIC	?VT@?$CVarTypeInfo@E@ATL@@2GB			; ATL::CVarTypeInfo<unsigned char>::VT
PUBLIC	?pmField@?$CVarTypeInfo@E@ATL@@2QQtagVARIANT@@EQ3@ ; ATL::CVarTypeInfo<unsigned char>::pmField
PUBLIC	?VT@?$CVarTypeInfo@PAD@ATL@@2GB			; ATL::CVarTypeInfo<char *>::VT
PUBLIC	?pmField@?$CVarTypeInfo@PAD@ATL@@2QQtagVARIANT@@PADQ3@ ; ATL::CVarTypeInfo<char *>::pmField
PUBLIC	?VT@?$CVarTypeInfo@PAE@ATL@@2GB			; ATL::CVarTypeInfo<unsigned char *>::VT
PUBLIC	?pmField@?$CVarTypeInfo@PAE@ATL@@2QQtagVARIANT@@PAEQ3@ ; ATL::CVarTypeInfo<unsigned char *>::pmField
PUBLIC	?VT@?$CVarTypeInfo@F@ATL@@2GB			; ATL::CVarTypeInfo<short>::VT
PUBLIC	?pmField@?$CVarTypeInfo@F@ATL@@2QQtagVARIANT@@FQ3@ ; ATL::CVarTypeInfo<short>::pmField
PUBLIC	?VT@?$CVarTypeInfo@PAF@ATL@@2GB			; ATL::CVarTypeInfo<short *>::VT
PUBLIC	?pmField@?$CVarTypeInfo@PAF@ATL@@2QQtagVARIANT@@PAFQ3@ ; ATL::CVarTypeInfo<short *>::pmField
PUBLIC	?VT@?$CVarTypeInfo@G@ATL@@2GB			; ATL::CVarTypeInfo<unsigned short>::VT
PUBLIC	?pmField@?$CVarTypeInfo@G@ATL@@2QQtagVARIANT@@GQ3@ ; ATL::CVarTypeInfo<unsigned short>::pmField
PUBLIC	?VT@?$CVarTypeInfo@PAG@ATL@@2GB			; ATL::CVarTypeInfo<unsigned short *>::VT
PUBLIC	?pmField@?$CVarTypeInfo@PAG@ATL@@2QQtagVARIANT@@PAGQ3@ ; ATL::CVarTypeInfo<unsigned short *>::pmField
PUBLIC	?VT@?$CVarTypeInfo@H@ATL@@2GB			; ATL::CVarTypeInfo<int>::VT
PUBLIC	?pmField@?$CVarTypeInfo@H@ATL@@2QQtagVARIANT@@HQ3@ ; ATL::CVarTypeInfo<int>::pmField
PUBLIC	?VT@?$CVarTypeInfo@PAH@ATL@@2GB			; ATL::CVarTypeInfo<int *>::VT
PUBLIC	?pmField@?$CVarTypeInfo@PAH@ATL@@2QQtagVARIANT@@PAHQ3@ ; ATL::CVarTypeInfo<int *>::pmField
PUBLIC	?VT@?$CVarTypeInfo@I@ATL@@2GB			; ATL::CVarTypeInfo<unsigned int>::VT
PUBLIC	?pmField@?$CVarTypeInfo@I@ATL@@2QQtagVARIANT@@IQ3@ ; ATL::CVarTypeInfo<unsigned int>::pmField
PUBLIC	?VT@?$CVarTypeInfo@PAI@ATL@@2GB			; ATL::CVarTypeInfo<unsigned int *>::VT
PUBLIC	?pmField@?$CVarTypeInfo@PAI@ATL@@2QQtagVARIANT@@PAIQ3@ ; ATL::CVarTypeInfo<unsigned int *>::pmField
PUBLIC	?VT@?$CVarTypeInfo@J@ATL@@2GB			; ATL::CVarTypeInfo<long>::VT
PUBLIC	?pmField@?$CVarTypeInfo@J@ATL@@2QQtagVARIANT@@JQ3@ ; ATL::CVarTypeInfo<long>::pmField
PUBLIC	?VT@?$CVarTypeInfo@PAJ@ATL@@2GB			; ATL::CVarTypeInfo<long *>::VT
PUBLIC	?pmField@?$CVarTypeInfo@PAJ@ATL@@2QQtagVARIANT@@PAJQ3@ ; ATL::CVarTypeInfo<long *>::pmField
PUBLIC	?VT@?$CVarTypeInfo@K@ATL@@2GB			; ATL::CVarTypeInfo<unsigned long>::VT
PUBLIC	?pmField@?$CVarTypeInfo@K@ATL@@2QQtagVARIANT@@KQ3@ ; ATL::CVarTypeInfo<unsigned long>::pmField
PUBLIC	?VT@?$CVarTypeInfo@PAK@ATL@@2GB			; ATL::CVarTypeInfo<unsigned long *>::VT
PUBLIC	?pmField@?$CVarTypeInfo@PAK@ATL@@2QQtagVARIANT@@PAKQ3@ ; ATL::CVarTypeInfo<unsigned long *>::pmField
PUBLIC	?VT@?$CVarTypeInfo@_J@ATL@@2GB			; ATL::CVarTypeInfo<__int64>::VT
PUBLIC	?pmField@?$CVarTypeInfo@_J@ATL@@2QQtagVARIANT@@_JQ3@ ; ATL::CVarTypeInfo<__int64>::pmField
PUBLIC	?VT@?$CVarTypeInfo@PA_J@ATL@@2GB		; ATL::CVarTypeInfo<__int64 *>::VT
PUBLIC	?pmField@?$CVarTypeInfo@PA_J@ATL@@2QQtagVARIANT@@PA_JQ3@ ; ATL::CVarTypeInfo<__int64 *>::pmField
PUBLIC	?VT@?$CVarTypeInfo@_K@ATL@@2GB			; ATL::CVarTypeInfo<unsigned __int64>::VT
PUBLIC	?pmField@?$CVarTypeInfo@_K@ATL@@2QQtagVARIANT@@_KQ3@ ; ATL::CVarTypeInfo<unsigned __int64>::pmField
PUBLIC	?VT@?$CVarTypeInfo@PA_K@ATL@@2GB		; ATL::CVarTypeInfo<unsigned __int64 *>::VT
PUBLIC	?pmField@?$CVarTypeInfo@PA_K@ATL@@2QQtagVARIANT@@PA_KQ3@ ; ATL::CVarTypeInfo<unsigned __int64 *>::pmField
PUBLIC	?VT@?$CVarTypeInfo@M@ATL@@2GB			; ATL::CVarTypeInfo<float>::VT
PUBLIC	?pmField@?$CVarTypeInfo@M@ATL@@2QQtagVARIANT@@MQ3@ ; ATL::CVarTypeInfo<float>::pmField
PUBLIC	?VT@?$CVarTypeInfo@PAM@ATL@@2GB			; ATL::CVarTypeInfo<float *>::VT
PUBLIC	?pmField@?$CVarTypeInfo@PAM@ATL@@2QQtagVARIANT@@PAMQ3@ ; ATL::CVarTypeInfo<float *>::pmField
PUBLIC	?VT@?$CVarTypeInfo@N@ATL@@2GB			; ATL::CVarTypeInfo<double>::VT
PUBLIC	?pmField@?$CVarTypeInfo@N@ATL@@2QQtagVARIANT@@NQ3@ ; ATL::CVarTypeInfo<double>::pmField
PUBLIC	?VT@?$CVarTypeInfo@PAN@ATL@@2GB			; ATL::CVarTypeInfo<double *>::VT
PUBLIC	?pmField@?$CVarTypeInfo@PAN@ATL@@2QQtagVARIANT@@PANQ3@ ; ATL::CVarTypeInfo<double *>::pmField
PUBLIC	?VT@?$CVarTypeInfo@UtagVARIANT@@@ATL@@2GB	; ATL::CVarTypeInfo<tagVARIANT>::VT
PUBLIC	?VT@?$CVarTypeInfo@PA_W@ATL@@2GB		; ATL::CVarTypeInfo<wchar_t *>::VT
PUBLIC	?pmField@?$CVarTypeInfo@PA_W@ATL@@2QQtagVARIANT@@PA_WQ3@ ; ATL::CVarTypeInfo<wchar_t *>::pmField
PUBLIC	?VT@?$CVarTypeInfo@PAPA_W@ATL@@2GB		; ATL::CVarTypeInfo<wchar_t * *>::VT
PUBLIC	?pmField@?$CVarTypeInfo@PAPA_W@ATL@@2QQtagVARIANT@@PAPA_WQ3@ ; ATL::CVarTypeInfo<wchar_t * *>::pmField
PUBLIC	?VT@?$CVarTypeInfo@PAUIUnknown@@@ATL@@2GB	; ATL::CVarTypeInfo<IUnknown *>::VT
PUBLIC	?pmField@?$CVarTypeInfo@PAUIUnknown@@@ATL@@2QQtagVARIANT@@PAUIUnknown@@Q3@ ; ATL::CVarTypeInfo<IUnknown *>::pmField
PUBLIC	?VT@?$CVarTypeInfo@PAPAUIUnknown@@@ATL@@2GB	; ATL::CVarTypeInfo<IUnknown * *>::VT
PUBLIC	?pmField@?$CVarTypeInfo@PAPAUIUnknown@@@ATL@@2QQtagVARIANT@@PAPAUIUnknown@@Q3@ ; ATL::CVarTypeInfo<IUnknown * *>::pmField
PUBLIC	?VT@?$CVarTypeInfo@PAUIDispatch@@@ATL@@2GB	; ATL::CVarTypeInfo<IDispatch *>::VT
PUBLIC	?pmField@?$CVarTypeInfo@PAUIDispatch@@@ATL@@2QQtagVARIANT@@PAUIDispatch@@Q3@ ; ATL::CVarTypeInfo<IDispatch *>::pmField
PUBLIC	?VT@?$CVarTypeInfo@PAPAUIDispatch@@@ATL@@2GB	; ATL::CVarTypeInfo<IDispatch * *>::VT
PUBLIC	?pmField@?$CVarTypeInfo@PAPAUIDispatch@@@ATL@@2QQtagVARIANT@@PAPAUIDispatch@@Q3@ ; ATL::CVarTypeInfo<IDispatch * *>::pmField
PUBLIC	?VT@?$CVarTypeInfo@TtagCY@@@ATL@@2GB		; ATL::CVarTypeInfo<tagCY>::VT
PUBLIC	?pmField@?$CVarTypeInfo@TtagCY@@@ATL@@2QQtagVARIANT@@TtagCY@@Q3@ ; ATL::CVarTypeInfo<tagCY>::pmField
PUBLIC	?VT@?$CVarTypeInfo@PATtagCY@@@ATL@@2GB		; ATL::CVarTypeInfo<tagCY *>::VT
PUBLIC	?pmField@?$CVarTypeInfo@PATtagCY@@@ATL@@2QQtagVARIANT@@PATtagCY@@Q3@ ; ATL::CVarTypeInfo<tagCY *>::pmField
PUBLIC	_LIBID_ATLLib
PUBLIC	_CLSID_Registrar
PUBLIC	_IID_IRegistrar
PUBLIC	_IID_IAxWinHostWindow
PUBLIC	_IID_IAxWinAmbientDispatch
PUBLIC	_IID_IInternalConnection
PUBLIC	_IID_IDocHostUIHandlerDispatch
PUBLIC	_IID_IAxWinHostWindowLic
PUBLIC	_IID_IAxWinAmbientDispatchEx
PUBLIC	___pobjMapEntryFirst
PUBLIC	___pobjMapEntryLast
PUBLIC	?_pPerfRegFunc@ATL@@3P6AJPAUHINSTANCE__@@@ZA	; ATL::_pPerfRegFunc
PUBLIC	?_pPerfUnRegFunc@ATL@@3P6AJXZA			; ATL::_pPerfUnRegFunc
PUBLIC	?_AtlRegisterPerUser@ATL@@3_NA			; ATL::_AtlRegisterPerUser
PUBLIC	?_pAtlModule@ATL@@3PAVCAtlModule@1@A		; ATL::_pAtlModule
PUBLIC	?m_libid@CAtlModule@ATL@@2U_GUID@@A		; ATL::CAtlModule::m_libid
PUBLIC	?_pModule@ATL@@3PAVCComModule@1@A		; ATL::_pModule
PUBLIC	?ATL_CREATE_OBJECT@CComApartment@ATL@@2IA	; ATL::CComApartment::ATL_CREATE_OBJECT
PUBLIC	?MAX_VALUE@CRegParser@ATL@@1HB			; ATL::CRegParser::MAX_VALUE
PUBLIC	?MAX_TYPE@CRegParser@ATL@@1HB			; ATL::CRegParser::MAX_TYPE
PUBLIC	?rgszNeverDelete@CRegParser@ATL@@1QBQB_WB	; ATL::CRegParser::rgszNeverDelete
PUBLIC	?cbNeverDelete@CRegParser@ATL@@1HB		; ATL::CRegParser::cbNeverDelete
PUBLIC	?rcDefault@CWindow@ATL@@2UtagRECT@@A		; ATL::CWindow::rcDefault
PUBLIC	?WM_ATLGETHOST@ATL@@3IA				; ATL::WM_ATLGETHOST
PUBLIC	?WM_ATLGETCONTROL@ATL@@3IA			; ATL::WM_ATLGETCONTROL
;	COMDAT ?_pAtlAutoThreadModule@ATL@@3PAUIAtlAutoThreadModule@1@A
_BSS	SEGMENT
?_pAtlAutoThreadModule@ATL@@3PAUIAtlAutoThreadModule@1@A DD 01H DUP (?) ; ATL::_pAtlAutoThreadModule
_BSS	ENDS
;	COMDAT ?s_pfnPrevHook@CNoUIAssertHook@ATL@@0P6AHHPADPAH@ZA
_BSS	SEGMENT
?s_pfnPrevHook@CNoUIAssertHook@ATL@@0P6AHHPADPAH@ZA DD 01H DUP (?) ; ATL::CNoUIAssertHook::s_pfnPrevHook
_BSS	ENDS
;	COMDAT ?m_bInitFailed@CAtlBaseModule@ATL@@2_NA
_BSS	SEGMENT
?m_bInitFailed@CAtlBaseModule@ATL@@2_NA DB 01H DUP (?)	; ATL::CAtlBaseModule::m_bInitFailed
_BSS	ENDS
;	COMDAT ?_pPerfRegFunc@ATL@@3P6AJPAUHINSTANCE__@@@ZA
_BSS	SEGMENT
?_pPerfRegFunc@ATL@@3P6AJPAUHINSTANCE__@@@ZA DD 01H DUP (?) ; ATL::_pPerfRegFunc
_BSS	ENDS
;	COMDAT ?_pPerfUnRegFunc@ATL@@3P6AJXZA
_BSS	SEGMENT
?_pPerfUnRegFunc@ATL@@3P6AJXZA DD 01H DUP (?)		; ATL::_pPerfUnRegFunc
_BSS	ENDS
;	COMDAT ?_AtlRegisterPerUser@ATL@@3_NA
_BSS	SEGMENT
?_AtlRegisterPerUser@ATL@@3_NA DB 01H DUP (?)		; ATL::_AtlRegisterPerUser
_BSS	ENDS
;	COMDAT ?_pAtlModule@ATL@@3PAVCAtlModule@1@A
_BSS	SEGMENT
?_pAtlModule@ATL@@3PAVCAtlModule@1@A DD 01H DUP (?)	; ATL::_pAtlModule
_BSS	ENDS
;	COMDAT ?m_libid@CAtlModule@ATL@@2U_GUID@@A
_BSS	SEGMENT
?m_libid@CAtlModule@ATL@@2U_GUID@@A DB 010H DUP (?)	; ATL::CAtlModule::m_libid
_BSS	ENDS
;	COMDAT ?_pModule@ATL@@3PAVCComModule@1@A
_BSS	SEGMENT
?_pModule@ATL@@3PAVCComModule@1@A DD 01H DUP (?)	; ATL::_pModule
_BSS	ENDS
;	COMDAT ?ATL_CREATE_OBJECT@CComApartment@ATL@@2IA
_BSS	SEGMENT
?ATL_CREATE_OBJECT@CComApartment@ATL@@2IA DD 01H DUP (?) ; ATL::CComApartment::ATL_CREATE_OBJECT
_BSS	ENDS
;	COMDAT ?WM_ATLGETHOST@ATL@@3IA
_BSS	SEGMENT
?WM_ATLGETHOST@ATL@@3IA DD 01H DUP (?)			; ATL::WM_ATLGETHOST
_BSS	ENDS
;	COMDAT ?WM_ATLGETCONTROL@ATL@@3IA
_BSS	SEGMENT
?WM_ATLGETCONTROL@ATL@@3IA DD 01H DUP (?)		; ATL::WM_ATLGETCONTROL
_BSS	ENDS
;	COMDAT ?rcDefault@CWindow@ATL@@2UtagRECT@@A
_DATA	SEGMENT
?rcDefault@CWindow@ATL@@2UtagRECT@@A DD 080000000H	; ATL::CWindow::rcDefault
	DD	080000000H
	DD	00H
	DD	00H
_DATA	ENDS
;	COMDAT ?cbNeverDelete@CRegParser@ATL@@1HB
CONST	SEGMENT
?cbNeverDelete@CRegParser@ATL@@1HB DD 0cH		; ATL::CRegParser::cbNeverDelete
CONST	ENDS
;	COMDAT ?rgszNeverDelete@CRegParser@ATL@@1QBQB_WB
CONST	SEGMENT
?rgszNeverDelete@CRegParser@ATL@@1QBQB_WB DD FLAT:??_C@_1M@EJNEECMJ@?$AAA?$AAp?$AAp?$AAI?$AAD?$AA?$AA@ ; ATL::CRegParser::rgszNeverDelete
	DD	FLAT:??_C@_1M@KANJNLFF@?$AAC?$AAL?$AAS?$AAI?$AAD?$AA?$AA@
	DD	FLAT:??_C@_1CK@OEKPKBNA@?$AAC?$AAo?$AAm?$AAp?$AAo?$AAn?$AAe?$AAn?$AAt?$AA?5?$AAC?$AAa?$AAt?$AAe?$AAg?$AAo?$AAr?$AAi?$AAe?$AAs?$AA?$AA@
	DD	FLAT:??_C@_1BC@NKMMNMGL@?$AAF?$AAi?$AAl?$AAe?$AAT?$AAy?$AAp?$AAe?$AA?$AA@
	DD	FLAT:??_C@_1BE@EKPAFMCP@?$AAI?$AAn?$AAt?$AAe?$AAr?$AAf?$AAa?$AAc?$AAe?$AA?$AA@
	DD	FLAT:??_C@_1BC@MAICEHGI@?$AAH?$AAa?$AAr?$AAd?$AAw?$AAa?$AAr?$AAe?$AA?$AA@
	DD	FLAT:??_C@_19HLLLM@?$AAM?$AAi?$AAm?$AAe?$AA?$AA@
	DD	FLAT:??_C@_17OMAOINJK@?$AAS?$AAA?$AAM?$AA?$AA@
	DD	FLAT:??_C@_1BC@IBECJAAI@?$AAS?$AAE?$AAC?$AAU?$AAR?$AAI?$AAT?$AAY?$AA?$AA@
	DD	FLAT:??_C@_1O@GBFINDKL@?$AAS?$AAY?$AAS?$AAT?$AAE?$AAM?$AA?$AA@
	DD	FLAT:??_C@_1BC@EAHCMADO@?$AAS?$AAo?$AAf?$AAt?$AAw?$AAa?$AAr?$AAe?$AA?$AA@
	DD	FLAT:??_C@_1BA@JIHHIEDE@?$AAT?$AAy?$AAp?$AAe?$AAL?$AAi?$AAb?$AA?$AA@
CONST	ENDS
;	COMDAT ??_C@_1BA@JIHHIEDE@?$AAT?$AAy?$AAp?$AAe?$AAL?$AAi?$AAb?$AA?$AA@
CONST	SEGMENT
??_C@_1BA@JIHHIEDE@?$AAT?$AAy?$AAp?$AAe?$AAL?$AAi?$AAb?$AA?$AA@ DB 'T', 00H
	DB	'y', 00H, 'p', 00H, 'e', 00H, 'L', 00H, 'i', 00H, 'b', 00H, 00H
	DB	00H						; `string'
CONST	ENDS
;	COMDAT ??_C@_1BC@EAHCMADO@?$AAS?$AAo?$AAf?$AAt?$AAw?$AAa?$AAr?$AAe?$AA?$AA@
CONST	SEGMENT
??_C@_1BC@EAHCMADO@?$AAS?$AAo?$AAf?$AAt?$AAw?$AAa?$AAr?$AAe?$AA?$AA@ DB 'S'
	DB	00H, 'o', 00H, 'f', 00H, 't', 00H, 'w', 00H, 'a', 00H, 'r', 00H
	DB	'e', 00H, 00H, 00H				; `string'
CONST	ENDS
;	COMDAT ??_C@_1O@GBFINDKL@?$AAS?$AAY?$AAS?$AAT?$AAE?$AAM?$AA?$AA@
CONST	SEGMENT
??_C@_1O@GBFINDKL@?$AAS?$AAY?$AAS?$AAT?$AAE?$AAM?$AA?$AA@ DB 'S', 00H, 'Y'
	DB	00H, 'S', 00H, 'T', 00H, 'E', 00H, 'M', 00H, 00H, 00H ; `string'
CONST	ENDS
;	COMDAT ??_C@_1BC@IBECJAAI@?$AAS?$AAE?$AAC?$AAU?$AAR?$AAI?$AAT?$AAY?$AA?$AA@
CONST	SEGMENT
??_C@_1BC@IBECJAAI@?$AAS?$AAE?$AAC?$AAU?$AAR?$AAI?$AAT?$AAY?$AA?$AA@ DB 'S'
	DB	00H, 'E', 00H, 'C', 00H, 'U', 00H, 'R', 00H, 'I', 00H, 'T', 00H
	DB	'Y', 00H, 00H, 00H				; `string'
CONST	ENDS
;	COMDAT ??_C@_17OMAOINJK@?$AAS?$AAA?$AAM?$AA?$AA@
CONST	SEGMENT
??_C@_17OMAOINJK@?$AAS?$AAA?$AAM?$AA?$AA@ DB 'S', 00H, 'A', 00H, 'M', 00H
	DB	00H, 00H					; `string'
CONST	ENDS
;	COMDAT ??_C@_19HLLLM@?$AAM?$AAi?$AAm?$AAe?$AA?$AA@
CONST	SEGMENT
??_C@_19HLLLM@?$AAM?$AAi?$AAm?$AAe?$AA?$AA@ DB 'M', 00H, 'i', 00H, 'm', 00H
	DB	'e', 00H, 00H, 00H				; `string'
CONST	ENDS
;	COMDAT ??_C@_1BC@MAICEHGI@?$AAH?$AAa?$AAr?$AAd?$AAw?$AAa?$AAr?$AAe?$AA?$AA@
CONST	SEGMENT
??_C@_1BC@MAICEHGI@?$AAH?$AAa?$AAr?$AAd?$AAw?$AAa?$AAr?$AAe?$AA?$AA@ DB 'H'
	DB	00H, 'a', 00H, 'r', 00H, 'd', 00H, 'w', 00H, 'a', 00H, 'r', 00H
	DB	'e', 00H, 00H, 00H				; `string'
CONST	ENDS
;	COMDAT ??_C@_1BE@EKPAFMCP@?$AAI?$AAn?$AAt?$AAe?$AAr?$AAf?$AAa?$AAc?$AAe?$AA?$AA@
CONST	SEGMENT
??_C@_1BE@EKPAFMCP@?$AAI?$AAn?$AAt?$AAe?$AAr?$AAf?$AAa?$AAc?$AAe?$AA?$AA@ DB 'I'
	DB	00H, 'n', 00H, 't', 00H, 'e', 00H, 'r', 00H, 'f', 00H, 'a', 00H
	DB	'c', 00H, 'e', 00H, 00H, 00H			; `string'
CONST	ENDS
;	COMDAT ??_C@_1BC@NKMMNMGL@?$AAF?$AAi?$AAl?$AAe?$AAT?$AAy?$AAp?$AAe?$AA?$AA@
CONST	SEGMENT
??_C@_1BC@NKMMNMGL@?$AAF?$AAi?$AAl?$AAe?$AAT?$AAy?$AAp?$AAe?$AA?$AA@ DB 'F'
	DB	00H, 'i', 00H, 'l', 00H, 'e', 00H, 'T', 00H, 'y', 00H, 'p', 00H
	DB	'e', 00H, 00H, 00H				; `string'
CONST	ENDS
;	COMDAT ??_C@_1CK@OEKPKBNA@?$AAC?$AAo?$AAm?$AAp?$AAo?$AAn?$AAe?$AAn?$AAt?$AA?5?$AAC?$AAa?$AAt?$AAe?$AAg?$AAo?$AAr?$AAi?$AAe?$AAs?$AA?$AA@
CONST	SEGMENT
??_C@_1CK@OEKPKBNA@?$AAC?$AAo?$AAm?$AAp?$AAo?$AAn?$AAe?$AAn?$AAt?$AA?5?$AAC?$AAa?$AAt?$AAe?$AAg?$AAo?$AAr?$AAi?$AAe?$AAs?$AA?$AA@ DB 'C'
	DB	00H, 'o', 00H, 'm', 00H, 'p', 00H, 'o', 00H, 'n', 00H, 'e', 00H
	DB	'n', 00H, 't', 00H, ' ', 00H, 'C', 00H, 'a', 00H, 't', 00H, 'e'
	DB	00H, 'g', 00H, 'o', 00H, 'r', 00H, 'i', 00H, 'e', 00H, 's', 00H
	DB	00H, 00H					; `string'
CONST	ENDS
;	COMDAT ??_C@_1M@KANJNLFF@?$AAC?$AAL?$AAS?$AAI?$AAD?$AA?$AA@
CONST	SEGMENT
??_C@_1M@KANJNLFF@?$AAC?$AAL?$AAS?$AAI?$AAD?$AA?$AA@ DB 'C', 00H, 'L', 00H
	DB	'S', 00H, 'I', 00H, 'D', 00H, 00H, 00H	; `string'
CONST	ENDS
;	COMDAT ??_C@_1M@EJNEECMJ@?$AAA?$AAp?$AAp?$AAI?$AAD?$AA?$AA@
CONST	SEGMENT
??_C@_1M@EJNEECMJ@?$AAA?$AAp?$AAp?$AAI?$AAD?$AA?$AA@ DB 'A', 00H, 'p', 00H
	DB	'p', 00H, 'I', 00H, 'D', 00H, 00H, 00H	; `string'
CONST	ENDS
;	COMDAT ?MAX_TYPE@CRegParser@ATL@@1HB
CONST	SEGMENT
?MAX_TYPE@CRegParser@ATL@@1HB DD 01000H			; ATL::CRegParser::MAX_TYPE
CONST	ENDS
;	COMDAT ?MAX_VALUE@CRegParser@ATL@@1HB
CONST	SEGMENT
?MAX_VALUE@CRegParser@ATL@@1HB DD 01000H		; ATL::CRegParser::MAX_VALUE
CONST	ENDS
;	COMDAT ??_C@_1O@JDLOHAN@?$AAD?$AAe?$AAl?$AAe?$AAt?$AAe?$AA?$AA@
CONST	SEGMENT
??_C@_1O@JDLOHAN@?$AAD?$AAe?$AAl?$AAe?$AAt?$AAe?$AA?$AA@ DB 'D', 00H, 'e', 00H
	DB	'l', 00H, 'e', 00H, 't', 00H, 'e', 00H, 00H, 00H ; `string'
CONST	ENDS
;	COMDAT ??_C@_1BC@GCKHIPE@?$AAN?$AAo?$AAR?$AAe?$AAm?$AAo?$AAv?$AAe?$AA?$AA@
CONST	SEGMENT
??_C@_1BC@GCKHIPE@?$AAN?$AAo?$AAR?$AAe?$AAm?$AAo?$AAv?$AAe?$AA?$AA@ DB 'N'
	DB	00H, 'o', 00H, 'R', 00H, 'e', 00H, 'm', 00H, 'o', 00H, 'v', 00H
	DB	'e', 00H, 00H, 00H				; `string'
CONST	ENDS
;	COMDAT ??_C@_1BI@JFAIJMHL@?$AAF?$AAo?$AAr?$AAc?$AAe?$AAR?$AAe?$AAm?$AAo?$AAv?$AAe?$AA?$AA@
CONST	SEGMENT
??_C@_1BI@JFAIJMHL@?$AAF?$AAo?$AAr?$AAc?$AAe?$AAR?$AAe?$AAm?$AAo?$AAv?$AAe?$AA?$AA@ DB 'F'
	DB	00H, 'o', 00H, 'r', 00H, 'c', 00H, 'e', 00H, 'R', 00H, 'e', 00H
	DB	'm', 00H, 'o', 00H, 'v', 00H, 'e', 00H, 00H, 00H ; `string'
CONST	ENDS
;	COMDAT ??_C@_17LLMMEOJD@?$AAV?$AAa?$AAl?$AA?$AA@
CONST	SEGMENT
??_C@_17LLMMEOJD@?$AAV?$AAa?$AAl?$AA?$AA@ DB 'V', 00H, 'a', 00H, 'l', 00H
	DB	00H, 00H					; `string'
CONST	ENDS
;	COMDAT ??_C@_13OPKGLAFF@?$AAB?$AA?$AA@
CONST	SEGMENT
??_C@_13OPKGLAFF@?$AAB?$AA?$AA@ DB 'B', 00H, 00H, 00H	; `string'
CONST	ENDS
;	COMDAT ??_C@_13MKMNOPIJ@?$AAD?$AA?$AA@
CONST	SEGMENT
??_C@_13MKMNOPIJ@?$AAD?$AA?$AA@ DB 'D', 00H, 00H, 00H	; `string'
CONST	ENDS
;	COMDAT ??_C@_13LHMFKAAD@?$AAM?$AA?$AA@
CONST	SEGMENT
??_C@_13LHMFKAAD@?$AAM?$AA?$AA@ DB 'M', 00H, 00H, 00H	; `string'
CONST	ENDS
CONST	SEGMENT
_szStringVal DD	FLAT:??_C@_13HADIAKP@?$AAS?$AA?$AA@
_multiszStringVal DD FLAT:??_C@_13LHMFKAAD@?$AAM?$AA?$AA@
_szDwordVal DD	FLAT:??_C@_13MKMNOPIJ@?$AAD?$AA?$AA@
_szBinaryVal DD	FLAT:??_C@_13OPKGLAFF@?$AAB?$AA?$AA@
_szValToken DD	FLAT:??_C@_17LLMMEOJD@?$AAV?$AAa?$AAl?$AA?$AA@
_szForceRemove DD FLAT:??_C@_1BI@JFAIJMHL@?$AAF?$AAo?$AAr?$AAc?$AAe?$AAR?$AAe?$AAm?$AAo?$AAv?$AAe?$AA?$AA@
_szNoRemove DD	FLAT:??_C@_1BC@GCKHIPE@?$AAN?$AAo?$AAR?$AAe?$AAm?$AAo?$AAv?$AAe?$AA?$AA@
_szDelete DD	FLAT:??_C@_1O@JDLOHAN@?$AAD?$AAe?$AAl?$AAe?$AAt?$AAe?$AA?$AA@
CONST	ENDS
;	COMDAT ??_C@_13HADIAKP@?$AAS?$AA?$AA@
CONST	SEGMENT
??_C@_13HADIAKP@?$AAS?$AA?$AA@ DB 'S', 00H, 00H, 00H	; `string'
CONST	ENDS
;	COMDAT ___pobjMapEntryLast
ATL$__z	SEGMENT
___pobjMapEntryLast DD 00H
ATL$__z	ENDS
;	COMDAT ___pobjMapEntryFirst
ATL$__a	SEGMENT
___pobjMapEntryFirst DD 00H
ATL$__a	ENDS
;	COMDAT _IID_IAxWinAmbientDispatchEx
CONST	SEGMENT
_IID_IAxWinAmbientDispatchEx DD 0b2d0778bH
	DW	0ac99H
	DW	04c58H
	DB	0a5H
	DB	0c8H
	DB	0e7H
	DB	072H
	DB	04eH
	DB	053H
	DB	016H
	DB	0b5H
CONST	ENDS
;	COMDAT _IID_IAxWinHostWindowLic
CONST	SEGMENT
_IID_IAxWinHostWindowLic DD 03935bda8H
	DW	04ed9H
	DW	0495cH
	DB	086H
	DB	050H
	DB	0e0H
	DB	01fH
	DB	0c1H
	DB	0e3H
	DB	08aH
	DB	04bH
CONST	ENDS
;	COMDAT _IID_IDocHostUIHandlerDispatch
CONST	SEGMENT
_IID_IDocHostUIHandlerDispatch DD 0425b5af0H
	DW	065f1H
	DW	011d1H
	DB	096H
	DB	011H
	DB	00H
	DB	00H
	DB	0f8H
	DB	01eH
	DB	0dH
	DB	0dH
CONST	ENDS
;	COMDAT _IID_IInternalConnection
CONST	SEGMENT
_IID_IInternalConnection DD 072ad0770H
	DW	06a9fH
	DW	011d1H
	DB	0bcH
	DB	0ecH
	DB	00H
	DB	060H
	DB	08H
	DB	08fH
	DB	044H
	DB	04eH
CONST	ENDS
;	COMDAT _IID_IAxWinAmbientDispatch
CONST	SEGMENT
_IID_IAxWinAmbientDispatch DD 0b6ea2051H
	DW	048aH
	DW	011d1H
	DB	082H
	DB	0b9H
	DB	00H
	DB	0c0H
	DB	04fH
	DB	0b9H
	DB	094H
	DB	02eH
CONST	ENDS
;	COMDAT _IID_IAxWinHostWindow
CONST	SEGMENT
_IID_IAxWinHostWindow DD 0b6ea2050H
	DW	048aH
	DW	011d1H
	DB	082H
	DB	0b9H
	DB	00H
	DB	0c0H
	DB	04fH
	DB	0b9H
	DB	094H
	DB	02eH
CONST	ENDS
;	COMDAT _IID_IRegistrar
CONST	SEGMENT
_IID_IRegistrar DD 044ec053bH
	DW	0400fH
	DW	011d0H
	DB	09dH
	DB	0cdH
	DB	00H
	DB	0a0H
	DB	0c9H
	DB	03H
	DB	091H
	DB	0d3H
CONST	ENDS
;	COMDAT _CLSID_Registrar
CONST	SEGMENT
_CLSID_Registrar DD 044ec053aH
	DW	0400fH
	DW	011d0H
	DB	09dH
	DB	0cdH
	DB	00H
	DB	0a0H
	DB	0c9H
	DB	03H
	DB	091H
	DB	0d3H
CONST	ENDS
;	COMDAT _LIBID_ATLLib
CONST	SEGMENT
_LIBID_ATLLib DD 044ec0535H
	DW	0400fH
	DW	011d0H
	DB	09dH
	DB	0cdH
	DB	00H
	DB	0a0H
	DB	0c9H
	DB	03H
	DB	091H
	DB	0d3H
CONST	ENDS
;	COMDAT ?pmField@?$CVarTypeInfo@PATtagCY@@@ATL@@2QQtagVARIANT@@PATtagCY@@Q3@
CONST	SEGMENT
?pmField@?$CVarTypeInfo@PATtagCY@@@ATL@@2QQtagVARIANT@@PATtagCY@@Q3@ DD 08H ; ATL::CVarTypeInfo<tagCY *>::pmField
CONST	ENDS
;	COMDAT ?VT@?$CVarTypeInfo@PATtagCY@@@ATL@@2GB
CONST	SEGMENT
?VT@?$CVarTypeInfo@PATtagCY@@@ATL@@2GB DW 04006H	; ATL::CVarTypeInfo<tagCY *>::VT
CONST	ENDS
;	COMDAT ?pmField@?$CVarTypeInfo@TtagCY@@@ATL@@2QQtagVARIANT@@TtagCY@@Q3@
CONST	SEGMENT
?pmField@?$CVarTypeInfo@TtagCY@@@ATL@@2QQtagVARIANT@@TtagCY@@Q3@ DD 08H ; ATL::CVarTypeInfo<tagCY>::pmField
CONST	ENDS
;	COMDAT ?VT@?$CVarTypeInfo@TtagCY@@@ATL@@2GB
CONST	SEGMENT
?VT@?$CVarTypeInfo@TtagCY@@@ATL@@2GB DW 06H		; ATL::CVarTypeInfo<tagCY>::VT
CONST	ENDS
;	COMDAT ?pmField@?$CVarTypeInfo@PAPAUIDispatch@@@ATL@@2QQtagVARIANT@@PAPAUIDispatch@@Q3@
CONST	SEGMENT
?pmField@?$CVarTypeInfo@PAPAUIDispatch@@@ATL@@2QQtagVARIANT@@PAPAUIDispatch@@Q3@ DD 08H ; ATL::CVarTypeInfo<IDispatch * *>::pmField
CONST	ENDS
;	COMDAT ?VT@?$CVarTypeInfo@PAPAUIDispatch@@@ATL@@2GB
CONST	SEGMENT
?VT@?$CVarTypeInfo@PAPAUIDispatch@@@ATL@@2GB DW 04009H	; ATL::CVarTypeInfo<IDispatch * *>::VT
CONST	ENDS
;	COMDAT ?pmField@?$CVarTypeInfo@PAUIDispatch@@@ATL@@2QQtagVARIANT@@PAUIDispatch@@Q3@
CONST	SEGMENT
?pmField@?$CVarTypeInfo@PAUIDispatch@@@ATL@@2QQtagVARIANT@@PAUIDispatch@@Q3@ DD 08H ; ATL::CVarTypeInfo<IDispatch *>::pmField
CONST	ENDS
;	COMDAT ?VT@?$CVarTypeInfo@PAUIDispatch@@@ATL@@2GB
CONST	SEGMENT
?VT@?$CVarTypeInfo@PAUIDispatch@@@ATL@@2GB DW 09H	; ATL::CVarTypeInfo<IDispatch *>::VT
CONST	ENDS
;	COMDAT ?pmField@?$CVarTypeInfo@PAPAUIUnknown@@@ATL@@2QQtagVARIANT@@PAPAUIUnknown@@Q3@
CONST	SEGMENT
?pmField@?$CVarTypeInfo@PAPAUIUnknown@@@ATL@@2QQtagVARIANT@@PAPAUIUnknown@@Q3@ DD 08H ; ATL::CVarTypeInfo<IUnknown * *>::pmField
CONST	ENDS
;	COMDAT ?VT@?$CVarTypeInfo@PAPAUIUnknown@@@ATL@@2GB
CONST	SEGMENT
?VT@?$CVarTypeInfo@PAPAUIUnknown@@@ATL@@2GB DW 0400dH	; ATL::CVarTypeInfo<IUnknown * *>::VT
CONST	ENDS
;	COMDAT ?pmField@?$CVarTypeInfo@PAUIUnknown@@@ATL@@2QQtagVARIANT@@PAUIUnknown@@Q3@
CONST	SEGMENT
?pmField@?$CVarTypeInfo@PAUIUnknown@@@ATL@@2QQtagVARIANT@@PAUIUnknown@@Q3@ DD 08H ; ATL::CVarTypeInfo<IUnknown *>::pmField
CONST	ENDS
;	COMDAT ?VT@?$CVarTypeInfo@PAUIUnknown@@@ATL@@2GB
CONST	SEGMENT
?VT@?$CVarTypeInfo@PAUIUnknown@@@ATL@@2GB DW 0dH	; ATL::CVarTypeInfo<IUnknown *>::VT
CONST	ENDS
;	COMDAT ?pmField@?$CVarTypeInfo@PAPA_W@ATL@@2QQtagVARIANT@@PAPA_WQ3@
CONST	SEGMENT
?pmField@?$CVarTypeInfo@PAPA_W@ATL@@2QQtagVARIANT@@PAPA_WQ3@ DD 08H ; ATL::CVarTypeInfo<wchar_t * *>::pmField
CONST	ENDS
;	COMDAT ?VT@?$CVarTypeInfo@PAPA_W@ATL@@2GB
CONST	SEGMENT
?VT@?$CVarTypeInfo@PAPA_W@ATL@@2GB DW 04008H		; ATL::CVarTypeInfo<wchar_t * *>::VT
CONST	ENDS
;	COMDAT ?pmField@?$CVarTypeInfo@PA_W@ATL@@2QQtagVARIANT@@PA_WQ3@
CONST	SEGMENT
?pmField@?$CVarTypeInfo@PA_W@ATL@@2QQtagVARIANT@@PA_WQ3@ DD 08H ; ATL::CVarTypeInfo<wchar_t *>::pmField
CONST	ENDS
;	COMDAT ?VT@?$CVarTypeInfo@PA_W@ATL@@2GB
CONST	SEGMENT
?VT@?$CVarTypeInfo@PA_W@ATL@@2GB DW 08H			; ATL::CVarTypeInfo<wchar_t *>::VT
CONST	ENDS
;	COMDAT ?VT@?$CVarTypeInfo@UtagVARIANT@@@ATL@@2GB
CONST	SEGMENT
?VT@?$CVarTypeInfo@UtagVARIANT@@@ATL@@2GB DW 0cH	; ATL::CVarTypeInfo<tagVARIANT>::VT
CONST	ENDS
;	COMDAT ?pmField@?$CVarTypeInfo@PAN@ATL@@2QQtagVARIANT@@PANQ3@
CONST	SEGMENT
?pmField@?$CVarTypeInfo@PAN@ATL@@2QQtagVARIANT@@PANQ3@ DD 08H ; ATL::CVarTypeInfo<double *>::pmField
CONST	ENDS
;	COMDAT ?VT@?$CVarTypeInfo@PAN@ATL@@2GB
CONST	SEGMENT
?VT@?$CVarTypeInfo@PAN@ATL@@2GB DW 04005H		; ATL::CVarTypeInfo<double *>::VT
CONST	ENDS
;	COMDAT ?pmField@?$CVarTypeInfo@N@ATL@@2QQtagVARIANT@@NQ3@
CONST	SEGMENT
?pmField@?$CVarTypeInfo@N@ATL@@2QQtagVARIANT@@NQ3@ DD 08H ; ATL::CVarTypeInfo<double>::pmField
CONST	ENDS
;	COMDAT ?VT@?$CVarTypeInfo@N@ATL@@2GB
CONST	SEGMENT
?VT@?$CVarTypeInfo@N@ATL@@2GB DW 05H			; ATL::CVarTypeInfo<double>::VT
CONST	ENDS
;	COMDAT ?pmField@?$CVarTypeInfo@PAM@ATL@@2QQtagVARIANT@@PAMQ3@
CONST	SEGMENT
?pmField@?$CVarTypeInfo@PAM@ATL@@2QQtagVARIANT@@PAMQ3@ DD 08H ; ATL::CVarTypeInfo<float *>::pmField
CONST	ENDS
;	COMDAT ?VT@?$CVarTypeInfo@PAM@ATL@@2GB
CONST	SEGMENT
?VT@?$CVarTypeInfo@PAM@ATL@@2GB DW 04004H		; ATL::CVarTypeInfo<float *>::VT
CONST	ENDS
;	COMDAT ?pmField@?$CVarTypeInfo@M@ATL@@2QQtagVARIANT@@MQ3@
CONST	SEGMENT
?pmField@?$CVarTypeInfo@M@ATL@@2QQtagVARIANT@@MQ3@ DD 08H ; ATL::CVarTypeInfo<float>::pmField
CONST	ENDS
;	COMDAT ?VT@?$CVarTypeInfo@M@ATL@@2GB
CONST	SEGMENT
?VT@?$CVarTypeInfo@M@ATL@@2GB DW 04H			; ATL::CVarTypeInfo<float>::VT
CONST	ENDS
;	COMDAT ?pmField@?$CVarTypeInfo@PA_K@ATL@@2QQtagVARIANT@@PA_KQ3@
CONST	SEGMENT
?pmField@?$CVarTypeInfo@PA_K@ATL@@2QQtagVARIANT@@PA_KQ3@ DD 08H ; ATL::CVarTypeInfo<unsigned __int64 *>::pmField
CONST	ENDS
;	COMDAT ?VT@?$CVarTypeInfo@PA_K@ATL@@2GB
CONST	SEGMENT
?VT@?$CVarTypeInfo@PA_K@ATL@@2GB DW 04015H		; ATL::CVarTypeInfo<unsigned __int64 *>::VT
CONST	ENDS
;	COMDAT ?pmField@?$CVarTypeInfo@_K@ATL@@2QQtagVARIANT@@_KQ3@
CONST	SEGMENT
?pmField@?$CVarTypeInfo@_K@ATL@@2QQtagVARIANT@@_KQ3@ DD 08H ; ATL::CVarTypeInfo<unsigned __int64>::pmField
CONST	ENDS
;	COMDAT ?VT@?$CVarTypeInfo@_K@ATL@@2GB
CONST	SEGMENT
?VT@?$CVarTypeInfo@_K@ATL@@2GB DW 015H			; ATL::CVarTypeInfo<unsigned __int64>::VT
CONST	ENDS
;	COMDAT ?pmField@?$CVarTypeInfo@PA_J@ATL@@2QQtagVARIANT@@PA_JQ3@
CONST	SEGMENT
?pmField@?$CVarTypeInfo@PA_J@ATL@@2QQtagVARIANT@@PA_JQ3@ DD 08H ; ATL::CVarTypeInfo<__int64 *>::pmField
CONST	ENDS
;	COMDAT ?VT@?$CVarTypeInfo@PA_J@ATL@@2GB
CONST	SEGMENT
?VT@?$CVarTypeInfo@PA_J@ATL@@2GB DW 04014H		; ATL::CVarTypeInfo<__int64 *>::VT
CONST	ENDS
;	COMDAT ?pmField@?$CVarTypeInfo@_J@ATL@@2QQtagVARIANT@@_JQ3@
CONST	SEGMENT
?pmField@?$CVarTypeInfo@_J@ATL@@2QQtagVARIANT@@_JQ3@ DD 08H ; ATL::CVarTypeInfo<__int64>::pmField
CONST	ENDS
;	COMDAT ?VT@?$CVarTypeInfo@_J@ATL@@2GB
CONST	SEGMENT
?VT@?$CVarTypeInfo@_J@ATL@@2GB DW 014H			; ATL::CVarTypeInfo<__int64>::VT
CONST	ENDS
;	COMDAT ?pmField@?$CVarTypeInfo@PAK@ATL@@2QQtagVARIANT@@PAKQ3@
CONST	SEGMENT
?pmField@?$CVarTypeInfo@PAK@ATL@@2QQtagVARIANT@@PAKQ3@ DD 08H ; ATL::CVarTypeInfo<unsigned long *>::pmField
CONST	ENDS
;	COMDAT ?VT@?$CVarTypeInfo@PAK@ATL@@2GB
CONST	SEGMENT
?VT@?$CVarTypeInfo@PAK@ATL@@2GB DW 04013H		; ATL::CVarTypeInfo<unsigned long *>::VT
CONST	ENDS
;	COMDAT ?pmField@?$CVarTypeInfo@K@ATL@@2QQtagVARIANT@@KQ3@
CONST	SEGMENT
?pmField@?$CVarTypeInfo@K@ATL@@2QQtagVARIANT@@KQ3@ DD 08H ; ATL::CVarTypeInfo<unsigned long>::pmField
CONST	ENDS
;	COMDAT ?VT@?$CVarTypeInfo@K@ATL@@2GB
CONST	SEGMENT
?VT@?$CVarTypeInfo@K@ATL@@2GB DW 013H			; ATL::CVarTypeInfo<unsigned long>::VT
CONST	ENDS
;	COMDAT ?pmField@?$CVarTypeInfo@PAJ@ATL@@2QQtagVARIANT@@PAJQ3@
CONST	SEGMENT
?pmField@?$CVarTypeInfo@PAJ@ATL@@2QQtagVARIANT@@PAJQ3@ DD 08H ; ATL::CVarTypeInfo<long *>::pmField
CONST	ENDS
;	COMDAT ?VT@?$CVarTypeInfo@PAJ@ATL@@2GB
CONST	SEGMENT
?VT@?$CVarTypeInfo@PAJ@ATL@@2GB DW 04003H		; ATL::CVarTypeInfo<long *>::VT
CONST	ENDS
;	COMDAT ?pmField@?$CVarTypeInfo@J@ATL@@2QQtagVARIANT@@JQ3@
CONST	SEGMENT
?pmField@?$CVarTypeInfo@J@ATL@@2QQtagVARIANT@@JQ3@ DD 08H ; ATL::CVarTypeInfo<long>::pmField
CONST	ENDS
;	COMDAT ?VT@?$CVarTypeInfo@J@ATL@@2GB
CONST	SEGMENT
?VT@?$CVarTypeInfo@J@ATL@@2GB DW 03H			; ATL::CVarTypeInfo<long>::VT
CONST	ENDS
;	COMDAT ?pmField@?$CVarTypeInfo@PAI@ATL@@2QQtagVARIANT@@PAIQ3@
CONST	SEGMENT
?pmField@?$CVarTypeInfo@PAI@ATL@@2QQtagVARIANT@@PAIQ3@ DD 08H ; ATL::CVarTypeInfo<unsigned int *>::pmField
CONST	ENDS
;	COMDAT ?VT@?$CVarTypeInfo@PAI@ATL@@2GB
CONST	SEGMENT
?VT@?$CVarTypeInfo@PAI@ATL@@2GB DW 04013H		; ATL::CVarTypeInfo<unsigned int *>::VT
CONST	ENDS
;	COMDAT ?pmField@?$CVarTypeInfo@I@ATL@@2QQtagVARIANT@@IQ3@
CONST	SEGMENT
?pmField@?$CVarTypeInfo@I@ATL@@2QQtagVARIANT@@IQ3@ DD 08H ; ATL::CVarTypeInfo<unsigned int>::pmField
CONST	ENDS
;	COMDAT ?VT@?$CVarTypeInfo@I@ATL@@2GB
CONST	SEGMENT
?VT@?$CVarTypeInfo@I@ATL@@2GB DW 013H			; ATL::CVarTypeInfo<unsigned int>::VT
CONST	ENDS
;	COMDAT ?pmField@?$CVarTypeInfo@PAH@ATL@@2QQtagVARIANT@@PAHQ3@
CONST	SEGMENT
?pmField@?$CVarTypeInfo@PAH@ATL@@2QQtagVARIANT@@PAHQ3@ DD 08H ; ATL::CVarTypeInfo<int *>::pmField
CONST	ENDS
;	COMDAT ?VT@?$CVarTypeInfo@PAH@ATL@@2GB
CONST	SEGMENT
?VT@?$CVarTypeInfo@PAH@ATL@@2GB DW 04003H		; ATL::CVarTypeInfo<int *>::VT
CONST	ENDS
;	COMDAT ?pmField@?$CVarTypeInfo@H@ATL@@2QQtagVARIANT@@HQ3@
CONST	SEGMENT
?pmField@?$CVarTypeInfo@H@ATL@@2QQtagVARIANT@@HQ3@ DD 08H ; ATL::CVarTypeInfo<int>::pmField
CONST	ENDS
;	COMDAT ?VT@?$CVarTypeInfo@H@ATL@@2GB
CONST	SEGMENT
?VT@?$CVarTypeInfo@H@ATL@@2GB DW 03H			; ATL::CVarTypeInfo<int>::VT
CONST	ENDS
;	COMDAT ?pmField@?$CVarTypeInfo@PAG@ATL@@2QQtagVARIANT@@PAGQ3@
CONST	SEGMENT
?pmField@?$CVarTypeInfo@PAG@ATL@@2QQtagVARIANT@@PAGQ3@ DD 08H ; ATL::CVarTypeInfo<unsigned short *>::pmField
CONST	ENDS
;	COMDAT ?VT@?$CVarTypeInfo@PAG@ATL@@2GB
CONST	SEGMENT
?VT@?$CVarTypeInfo@PAG@ATL@@2GB DW 04012H		; ATL::CVarTypeInfo<unsigned short *>::VT
CONST	ENDS
;	COMDAT ?pmField@?$CVarTypeInfo@G@ATL@@2QQtagVARIANT@@GQ3@
CONST	SEGMENT
?pmField@?$CVarTypeInfo@G@ATL@@2QQtagVARIANT@@GQ3@ DD 08H ; ATL::CVarTypeInfo<unsigned short>::pmField
CONST	ENDS
;	COMDAT ?VT@?$CVarTypeInfo@G@ATL@@2GB
CONST	SEGMENT
?VT@?$CVarTypeInfo@G@ATL@@2GB DW 012H			; ATL::CVarTypeInfo<unsigned short>::VT
CONST	ENDS
;	COMDAT ?pmField@?$CVarTypeInfo@PAF@ATL@@2QQtagVARIANT@@PAFQ3@
CONST	SEGMENT
?pmField@?$CVarTypeInfo@PAF@ATL@@2QQtagVARIANT@@PAFQ3@ DD 08H ; ATL::CVarTypeInfo<short *>::pmField
CONST	ENDS
;	COMDAT ?VT@?$CVarTypeInfo@PAF@ATL@@2GB
CONST	SEGMENT
?VT@?$CVarTypeInfo@PAF@ATL@@2GB DW 04002H		; ATL::CVarTypeInfo<short *>::VT
CONST	ENDS
;	COMDAT ?pmField@?$CVarTypeInfo@F@ATL@@2QQtagVARIANT@@FQ3@
CONST	SEGMENT
?pmField@?$CVarTypeInfo@F@ATL@@2QQtagVARIANT@@FQ3@ DD 08H ; ATL::CVarTypeInfo<short>::pmField
CONST	ENDS
;	COMDAT ?VT@?$CVarTypeInfo@F@ATL@@2GB
CONST	SEGMENT
?VT@?$CVarTypeInfo@F@ATL@@2GB DW 02H			; ATL::CVarTypeInfo<short>::VT
CONST	ENDS
;	COMDAT ?pmField@?$CVarTypeInfo@PAE@ATL@@2QQtagVARIANT@@PAEQ3@
CONST	SEGMENT
?pmField@?$CVarTypeInfo@PAE@ATL@@2QQtagVARIANT@@PAEQ3@ DD 08H ; ATL::CVarTypeInfo<unsigned char *>::pmField
CONST	ENDS
;	COMDAT ?VT@?$CVarTypeInfo@PAE@ATL@@2GB
CONST	SEGMENT
?VT@?$CVarTypeInfo@PAE@ATL@@2GB DW 04011H		; ATL::CVarTypeInfo<unsigned char *>::VT
CONST	ENDS
;	COMDAT ?pmField@?$CVarTypeInfo@PAD@ATL@@2QQtagVARIANT@@PADQ3@
CONST	SEGMENT
?pmField@?$CVarTypeInfo@PAD@ATL@@2QQtagVARIANT@@PADQ3@ DD 08H ; ATL::CVarTypeInfo<char *>::pmField
CONST	ENDS
;	COMDAT ?VT@?$CVarTypeInfo@PAD@ATL@@2GB
CONST	SEGMENT
?VT@?$CVarTypeInfo@PAD@ATL@@2GB DW 04010H		; ATL::CVarTypeInfo<char *>::VT
CONST	ENDS
;	COMDAT ?pmField@?$CVarTypeInfo@E@ATL@@2QQtagVARIANT@@EQ3@
CONST	SEGMENT
?pmField@?$CVarTypeInfo@E@ATL@@2QQtagVARIANT@@EQ3@ DD 08H ; ATL::CVarTypeInfo<unsigned char>::pmField
CONST	ENDS
;	COMDAT ?VT@?$CVarTypeInfo@E@ATL@@2GB
CONST	SEGMENT
?VT@?$CVarTypeInfo@E@ATL@@2GB DW 011H			; ATL::CVarTypeInfo<unsigned char>::VT
CONST	ENDS
;	COMDAT ?pmField@?$CVarTypeInfo@D@ATL@@2QQtagVARIANT@@DQ3@
CONST	SEGMENT
?pmField@?$CVarTypeInfo@D@ATL@@2QQtagVARIANT@@DQ3@ DD 08H ; ATL::CVarTypeInfo<char>::pmField
CONST	ENDS
;	COMDAT ?VT@?$CVarTypeInfo@D@ATL@@2GB
CONST	SEGMENT
?VT@?$CVarTypeInfo@D@ATL@@2GB DW 010H			; ATL::CVarTypeInfo<char>::VT
CONST	ENDS
;	COMDAT ?_Max@?$AtlLimits@_K@ATL@@2_KB
CONST	SEGMENT
?_Max@?$AtlLimits@_K@ATL@@2_KB DQ ffffffffffffffffH	; ATL::AtlLimits<unsigned __int64>::_Max
CONST	ENDS
;	COMDAT ?_Min@?$AtlLimits@_K@ATL@@2_KB
CONST	SEGMENT
?_Min@?$AtlLimits@_K@ATL@@2_KB DQ 0000000000000000H	; ATL::AtlLimits<unsigned __int64>::_Min
CONST	ENDS
;	COMDAT ?_Max@?$AtlLimits@_J@ATL@@2_JB
CONST	SEGMENT
?_Max@?$AtlLimits@_J@ATL@@2_JB DQ 7fffffffffffffffH	; ATL::AtlLimits<__int64>::_Max
CONST	ENDS
;	COMDAT ?_Min@?$AtlLimits@_J@ATL@@2_JB
CONST	SEGMENT
?_Min@?$AtlLimits@_J@ATL@@2_JB DQ 8000000000000000H	; ATL::AtlLimits<__int64>::_Min
CONST	ENDS
;	COMDAT ?_Max@?$AtlLimits@K@ATL@@2KB
CONST	SEGMENT
?_Max@?$AtlLimits@K@ATL@@2KB DD 0ffffffffH		; ATL::AtlLimits<unsigned long>::_Max
CONST	ENDS
;	COMDAT ?_Min@?$AtlLimits@K@ATL@@2KB
CONST	SEGMENT
?_Min@?$AtlLimits@K@ATL@@2KB DD 00H			; ATL::AtlLimits<unsigned long>::_Min
CONST	ENDS
;	COMDAT ?_Max@?$AtlLimits@J@ATL@@2JB
CONST	SEGMENT
?_Max@?$AtlLimits@J@ATL@@2JB DD 07fffffffH		; ATL::AtlLimits<long>::_Max
CONST	ENDS
;	COMDAT ?_Min@?$AtlLimits@J@ATL@@2JB
CONST	SEGMENT
?_Min@?$AtlLimits@J@ATL@@2JB DD 080000000H		; ATL::AtlLimits<long>::_Min
CONST	ENDS
;	COMDAT ?_Max@?$AtlLimits@I@ATL@@2IB
CONST	SEGMENT
?_Max@?$AtlLimits@I@ATL@@2IB DD 0ffffffffH		; ATL::AtlLimits<unsigned int>::_Max
CONST	ENDS
;	COMDAT ?_Min@?$AtlLimits@I@ATL@@2IB
CONST	SEGMENT
?_Min@?$AtlLimits@I@ATL@@2IB DD 00H			; ATL::AtlLimits<unsigned int>::_Min
CONST	ENDS
;	COMDAT ?_Max@?$AtlLimits@H@ATL@@2HB
CONST	SEGMENT
?_Max@?$AtlLimits@H@ATL@@2HB DD 07fffffffH		; ATL::AtlLimits<int>::_Max
CONST	ENDS
;	COMDAT ?_Min@?$AtlLimits@H@ATL@@2HB
CONST	SEGMENT
?_Min@?$AtlLimits@H@ATL@@2HB DD 080000000H		; ATL::AtlLimits<int>::_Min
CONST	ENDS
;	COMDAT ?end@?$_Iosb@H@std@@2W4_Seekdir@12@B
CONST	SEGMENT
?end@?$_Iosb@H@std@@2W4_Seekdir@12@B DD 02H		; std::_Iosb<int>::end
CONST	ENDS
;	COMDAT ?cur@?$_Iosb@H@std@@2W4_Seekdir@12@B
CONST	SEGMENT
?cur@?$_Iosb@H@std@@2W4_Seekdir@12@B DD 01H		; std::_Iosb<int>::cur
CONST	ENDS
;	COMDAT ?beg@?$_Iosb@H@std@@2W4_Seekdir@12@B
CONST	SEGMENT
?beg@?$_Iosb@H@std@@2W4_Seekdir@12@B DD 00H		; std::_Iosb<int>::beg
CONST	ENDS
;	COMDAT ?binary@?$_Iosb@H@std@@2W4_Openmode@12@B
CONST	SEGMENT
?binary@?$_Iosb@H@std@@2W4_Openmode@12@B DD 020H	; std::_Iosb<int>::binary
CONST	ENDS
;	COMDAT ?_Noreplace@?$_Iosb@H@std@@2W4_Openmode@12@B
CONST	SEGMENT
?_Noreplace@?$_Iosb@H@std@@2W4_Openmode@12@B DD 080H	; std::_Iosb<int>::_Noreplace
CONST	ENDS
;	COMDAT ?_Nocreate@?$_Iosb@H@std@@2W4_Openmode@12@B
CONST	SEGMENT
?_Nocreate@?$_Iosb@H@std@@2W4_Openmode@12@B DD 040H	; std::_Iosb<int>::_Nocreate
CONST	ENDS
;	COMDAT ?trunc@?$_Iosb@H@std@@2W4_Openmode@12@B
CONST	SEGMENT
?trunc@?$_Iosb@H@std@@2W4_Openmode@12@B DD 010H		; std::_Iosb<int>::trunc
CONST	ENDS
;	COMDAT ?app@?$_Iosb@H@std@@2W4_Openmode@12@B
CONST	SEGMENT
?app@?$_Iosb@H@std@@2W4_Openmode@12@B DD 08H		; std::_Iosb<int>::app
CONST	ENDS
;	COMDAT ?ate@?$_Iosb@H@std@@2W4_Openmode@12@B
CONST	SEGMENT
?ate@?$_Iosb@H@std@@2W4_Openmode@12@B DD 04H		; std::_Iosb<int>::ate
CONST	ENDS
;	COMDAT ?out@?$_Iosb@H@std@@2W4_Openmode@12@B
CONST	SEGMENT
?out@?$_Iosb@H@std@@2W4_Openmode@12@B DD 02H		; std::_Iosb<int>::out
CONST	ENDS
;	COMDAT ?in@?$_Iosb@H@std@@2W4_Openmode@12@B
CONST	SEGMENT
?in@?$_Iosb@H@std@@2W4_Openmode@12@B DD 01H		; std::_Iosb<int>::in
CONST	ENDS
;	COMDAT ?_Hardfail@?$_Iosb@H@std@@2W4_Iostate@12@B
CONST	SEGMENT
?_Hardfail@?$_Iosb@H@std@@2W4_Iostate@12@B DD 010H	; std::_Iosb<int>::_Hardfail
CONST	ENDS
;	COMDAT ?badbit@?$_Iosb@H@std@@2W4_Iostate@12@B
CONST	SEGMENT
?badbit@?$_Iosb@H@std@@2W4_Iostate@12@B DD 04H		; std::_Iosb<int>::badbit
CONST	ENDS
;	COMDAT ?failbit@?$_Iosb@H@std@@2W4_Iostate@12@B
CONST	SEGMENT
?failbit@?$_Iosb@H@std@@2W4_Iostate@12@B DD 02H		; std::_Iosb<int>::failbit
CONST	ENDS
;	COMDAT ?eofbit@?$_Iosb@H@std@@2W4_Iostate@12@B
CONST	SEGMENT
?eofbit@?$_Iosb@H@std@@2W4_Iostate@12@B DD 01H		; std::_Iosb<int>::eofbit
CONST	ENDS
;	COMDAT ?goodbit@?$_Iosb@H@std@@2W4_Iostate@12@B
CONST	SEGMENT
?goodbit@?$_Iosb@H@std@@2W4_Iostate@12@B DD 00H		; std::_Iosb<int>::goodbit
CONST	ENDS
;	COMDAT ?floatfield@?$_Iosb@H@std@@2W4_Fmtflags@12@B
CONST	SEGMENT
?floatfield@?$_Iosb@H@std@@2W4_Fmtflags@12@B DD 03000H	; std::_Iosb<int>::floatfield
CONST	ENDS
;	COMDAT ?basefield@?$_Iosb@H@std@@2W4_Fmtflags@12@B
CONST	SEGMENT
?basefield@?$_Iosb@H@std@@2W4_Fmtflags@12@B DD 0e00H	; std::_Iosb<int>::basefield
CONST	ENDS
;	COMDAT ?adjustfield@?$_Iosb@H@std@@2W4_Fmtflags@12@B
CONST	SEGMENT
?adjustfield@?$_Iosb@H@std@@2W4_Fmtflags@12@B DD 01c0H	; std::_Iosb<int>::adjustfield
CONST	ENDS
;	COMDAT ?_Stdio@?$_Iosb@H@std@@2W4_Fmtflags@12@B
CONST	SEGMENT
?_Stdio@?$_Iosb@H@std@@2W4_Fmtflags@12@B DD 08000H	; std::_Iosb<int>::_Stdio
CONST	ENDS
;	COMDAT ?boolalpha@?$_Iosb@H@std@@2W4_Fmtflags@12@B
CONST	SEGMENT
?boolalpha@?$_Iosb@H@std@@2W4_Fmtflags@12@B DD 04000H	; std::_Iosb<int>::boolalpha
CONST	ENDS
;	COMDAT ?hexfloat@?$_Iosb@H@std@@2W4_Fmtflags@12@B
CONST	SEGMENT
?hexfloat@?$_Iosb@H@std@@2W4_Fmtflags@12@B DD 03000H	; std::_Iosb<int>::hexfloat
CONST	ENDS
;	COMDAT ?fixed@?$_Iosb@H@std@@2W4_Fmtflags@12@B
CONST	SEGMENT
?fixed@?$_Iosb@H@std@@2W4_Fmtflags@12@B DD 02000H	; std::_Iosb<int>::fixed
CONST	ENDS
;	COMDAT ?scientific@?$_Iosb@H@std@@2W4_Fmtflags@12@B
CONST	SEGMENT
?scientific@?$_Iosb@H@std@@2W4_Fmtflags@12@B DD 01000H	; std::_Iosb<int>::scientific
CONST	ENDS
;	COMDAT ?hex@?$_Iosb@H@std@@2W4_Fmtflags@12@B
CONST	SEGMENT
?hex@?$_Iosb@H@std@@2W4_Fmtflags@12@B DD 0800H		; std::_Iosb<int>::hex
CONST	ENDS
;	COMDAT ?oct@?$_Iosb@H@std@@2W4_Fmtflags@12@B
CONST	SEGMENT
?oct@?$_Iosb@H@std@@2W4_Fmtflags@12@B DD 0400H		; std::_Iosb<int>::oct
CONST	ENDS
;	COMDAT ?dec@?$_Iosb@H@std@@2W4_Fmtflags@12@B
CONST	SEGMENT
?dec@?$_Iosb@H@std@@2W4_Fmtflags@12@B DD 0200H		; std::_Iosb<int>::dec
CONST	ENDS
;	COMDAT ?internal@?$_Iosb@H@std@@2W4_Fmtflags@12@B
CONST	SEGMENT
?internal@?$_Iosb@H@std@@2W4_Fmtflags@12@B DD 0100H	; std::_Iosb<int>::internal
CONST	ENDS
;	COMDAT ?right@?$_Iosb@H@std@@2W4_Fmtflags@12@B
CONST	SEGMENT
?right@?$_Iosb@H@std@@2W4_Fmtflags@12@B DD 080H		; std::_Iosb<int>::right
CONST	ENDS
;	COMDAT ?left@?$_Iosb@H@std@@2W4_Fmtflags@12@B
CONST	SEGMENT
?left@?$_Iosb@H@std@@2W4_Fmtflags@12@B DD 040H		; std::_Iosb<int>::left
CONST	ENDS
;	COMDAT ?showpos@?$_Iosb@H@std@@2W4_Fmtflags@12@B
CONST	SEGMENT
?showpos@?$_Iosb@H@std@@2W4_Fmtflags@12@B DD 020H	; std::_Iosb<int>::showpos
CONST	ENDS
;	COMDAT ?showpoint@?$_Iosb@H@std@@2W4_Fmtflags@12@B
CONST	SEGMENT
?showpoint@?$_Iosb@H@std@@2W4_Fmtflags@12@B DD 010H	; std::_Iosb<int>::showpoint
CONST	ENDS
;	COMDAT ?showbase@?$_Iosb@H@std@@2W4_Fmtflags@12@B
CONST	SEGMENT
?showbase@?$_Iosb@H@std@@2W4_Fmtflags@12@B DD 08H	; std::_Iosb<int>::showbase
CONST	ENDS
;	COMDAT ?uppercase@?$_Iosb@H@std@@2W4_Fmtflags@12@B
CONST	SEGMENT
?uppercase@?$_Iosb@H@std@@2W4_Fmtflags@12@B DD 04H	; std::_Iosb<int>::uppercase
CONST	ENDS
;	COMDAT ?unitbuf@?$_Iosb@H@std@@2W4_Fmtflags@12@B
CONST	SEGMENT
?unitbuf@?$_Iosb@H@std@@2W4_Fmtflags@12@B DD 02H	; std::_Iosb<int>::unitbuf
CONST	ENDS
;	COMDAT ?skipws@?$_Iosb@H@std@@2W4_Fmtflags@12@B
CONST	SEGMENT
?skipws@?$_Iosb@H@std@@2W4_Fmtflags@12@B DD 01H		; std::_Iosb<int>::skipws
CONST	ENDS
;	COMDAT ?none@?$_Locbase@H@std@@2HB
CONST	SEGMENT
?none@?$_Locbase@H@std@@2HB DD 00H			; std::_Locbase<int>::none
CONST	ENDS
;	COMDAT ?all@?$_Locbase@H@std@@2HB
CONST	SEGMENT
?all@?$_Locbase@H@std@@2HB DD 03fH			; std::_Locbase<int>::all
CONST	ENDS
;	COMDAT ?messages@?$_Locbase@H@std@@2HB
CONST	SEGMENT
?messages@?$_Locbase@H@std@@2HB DD 020H			; std::_Locbase<int>::messages
CONST	ENDS
;	COMDAT ?time@?$_Locbase@H@std@@2HB
CONST	SEGMENT
?time@?$_Locbase@H@std@@2HB DD 010H			; std::_Locbase<int>::time
CONST	ENDS
;	COMDAT ?numeric@?$_Locbase@H@std@@2HB
CONST	SEGMENT
?numeric@?$_Locbase@H@std@@2HB DD 08H			; std::_Locbase<int>::numeric
CONST	ENDS
;	COMDAT ?monetary@?$_Locbase@H@std@@2HB
CONST	SEGMENT
?monetary@?$_Locbase@H@std@@2HB DD 04H			; std::_Locbase<int>::monetary
CONST	ENDS
;	COMDAT ?ctype@?$_Locbase@H@std@@2HB
CONST	SEGMENT
?ctype@?$_Locbase@H@std@@2HB DD 02H			; std::_Locbase<int>::ctype
CONST	ENDS
;	COMDAT ?collate@?$_Locbase@H@std@@2HB
CONST	SEGMENT
?collate@?$_Locbase@H@std@@2HB DD 01H			; std::_Locbase<int>::collate
CONST	ENDS
_DATA	SEGMENT
__bad_alloc_Message DD FLAT:??_C@_0P@GHFPNOJB@bad?5allocation?$AA@
_DATA	ENDS
;	COMDAT ??_C@_0P@GHFPNOJB@bad?5allocation?$AA@
CONST	SEGMENT
??_C@_0P@GHFPNOJB@bad?5allocation?$AA@ DB 'bad allocation', 00H ; `string'
CONST	ENDS
PUBLIC	??1stringdispid@CComTypeInfoHolder@ATL@@QAE@XZ	; ATL::CComTypeInfoHolder::stringdispid::~stringdispid
PUBLIC	??_Estringdispid@CComTypeInfoHolder@ATL@@QAEPAXI@Z ; ATL::CComTypeInfoHolder::stringdispid::`vector deleting destructor'
EXTRN	??3@YAXPAX@Z:PROC				; operator delete
EXTRN	??_V@YAXPAX@Z:PROC				; operator delete[]
EXTRN	??_M@YGXPAXIHP6EX0@Z@Z:PROC			; `eh vector destructor iterator'
EXTRN	__RTC_CheckEsp:PROC
EXTRN	__RTC_Shutdown:PROC
EXTRN	__RTC_InitBase:PROC
;	COMDAT rtc$TMZ
rtc$TMZ	SEGMENT
__RTC_Shutdown.rtc$TMZ DD FLAT:__RTC_Shutdown
rtc$TMZ	ENDS
;	COMDAT rtc$IMZ
rtc$IMZ	SEGMENT
__RTC_InitBase.rtc$IMZ DD FLAT:__RTC_InitBase
; Function compile flags: /Odtp /RTCsu /ZI
rtc$IMZ	ENDS
;	COMDAT ??_Estringdispid@CComTypeInfoHolder@ATL@@QAEPAXI@Z
_TEXT	SEGMENT
_this$ = -8						; size = 4
___flags$ = 8						; size = 4
??_Estringdispid@CComTypeInfoHolder@ATL@@QAEPAXI@Z PROC	; ATL::CComTypeInfoHolder::stringdispid::`vector deleting destructor', COMDAT
; _this$ = ecx
  00000	55		 push	 ebp
  00001	8b ec		 mov	 ebp, esp
  00003	81 ec cc 00 00
	00		 sub	 esp, 204		; 000000ccH
  00009	53		 push	 ebx
  0000a	56		 push	 esi
  0000b	57		 push	 edi
  0000c	51		 push	 ecx
  0000d	8d bd 34 ff ff
	ff		 lea	 edi, DWORD PTR [ebp-204]
  00013	b9 33 00 00 00	 mov	 ecx, 51			; 00000033H
  00018	b8 cc cc cc cc	 mov	 eax, -858993460		; ccccccccH
  0001d	f3 ab		 rep stosd
  0001f	59		 pop	 ecx
  00020	89 4d f8	 mov	 DWORD PTR _this$[ebp], ecx
  00023	8b 45 08	 mov	 eax, DWORD PTR ___flags$[ebp]
  00026	83 e0 02	 and	 eax, 2
  00029	74 36		 je	 SHORT $LN3@vector
  0002b	68 00 00 00 00	 push	 OFFSET ??1stringdispid@CComTypeInfoHolder@ATL@@QAE@XZ
  00030	8b 45 f8	 mov	 eax, DWORD PTR _this$[ebp]
  00033	8b 48 fc	 mov	 ecx, DWORD PTR [eax-4]
  00036	51		 push	 ecx
  00037	6a 0c		 push	 12			; 0000000cH
  00039	8b 55 f8	 mov	 edx, DWORD PTR _this$[ebp]
  0003c	52		 push	 edx
  0003d	e8 00 00 00 00	 call	 ??_M@YGXPAXIHP6EX0@Z@Z
  00042	8b 45 08	 mov	 eax, DWORD PTR ___flags$[ebp]
  00045	83 e0 01	 and	 eax, 1
  00048	74 0f		 je	 SHORT $LN2@vector
  0004a	8b 45 f8	 mov	 eax, DWORD PTR _this$[ebp]
  0004d	83 e8 04	 sub	 eax, 4
  00050	50		 push	 eax
  00051	e8 00 00 00 00	 call	 ??_V@YAXPAX@Z		; operator delete[]
  00056	83 c4 04	 add	 esp, 4
$LN2@vector:
  00059	8b 45 f8	 mov	 eax, DWORD PTR _this$[ebp]
  0005c	83 e8 04	 sub	 eax, 4
  0005f	eb 1f		 jmp	 SHORT $LN4@vector
$LN3@vector:
  00061	8b 4d f8	 mov	 ecx, DWORD PTR _this$[ebp]
  00064	e8 00 00 00 00	 call	 ??1stringdispid@CComTypeInfoHolder@ATL@@QAE@XZ
  00069	8b 45 08	 mov	 eax, DWORD PTR ___flags$[ebp]
  0006c	83 e0 01	 and	 eax, 1
  0006f	74 0c		 je	 SHORT $LN1@vector
  00071	8b 45 f8	 mov	 eax, DWORD PTR _this$[ebp]
  00074	50		 push	 eax
  00075	e8 00 00 00 00	 call	 ??3@YAXPAX@Z		; operator delete
  0007a	83 c4 04	 add	 esp, 4
$LN1@vector:
  0007d	8b 45 f8	 mov	 eax, DWORD PTR _this$[ebp]
$LN4@vector:
  00080	5f		 pop	 edi
  00081	5e		 pop	 esi
  00082	5b		 pop	 ebx
  00083	81 c4 cc 00 00
	00		 add	 esp, 204		; 000000ccH
  00089	3b ec		 cmp	 ebp, esp
  0008b	e8 00 00 00 00	 call	 __RTC_CheckEsp
  00090	8b e5		 mov	 esp, ebp
  00092	5d		 pop	 ebp
  00093	c2 04 00	 ret	 4
??_Estringdispid@CComTypeInfoHolder@ATL@@QAEPAXI@Z ENDP	; ATL::CComTypeInfoHolder::stringdispid::`vector deleting destructor'
_TEXT	ENDS
PUBLIC	??1CComBSTR@ATL@@QAE@XZ				; ATL::CComBSTR::~CComBSTR
; Function compile flags: /Odtp /RTCsu /ZI
;	COMDAT ??1stringdispid@CComTypeInfoHolder@ATL@@QAE@XZ
_TEXT	SEGMENT
_this$ = -8						; size = 4
??1stringdispid@CComTypeInfoHolder@ATL@@QAE@XZ PROC	; ATL::CComTypeInfoHolder::stringdispid::~stringdispid, COMDAT
; _this$ = ecx
  00000	55		 push	 ebp
  00001	8b ec		 mov	 ebp, esp
  00003	81 ec cc 00 00
	00		 sub	 esp, 204		; 000000ccH
  00009	53		 push	 ebx
  0000a	56		 push	 esi
  0000b	57		 push	 edi
  0000c	51		 push	 ecx
  0000d	8d bd 34 ff ff
	ff		 lea	 edi, DWORD PTR [ebp-204]
  00013	b9 33 00 00 00	 mov	 ecx, 51			; 00000033H
  00018	b8 cc cc cc cc	 mov	 eax, -858993460		; ccccccccH
  0001d	f3 ab		 rep stosd
  0001f	59		 pop	 ecx
  00020	89 4d f8	 mov	 DWORD PTR _this$[ebp], ecx
  00023	8b 4d f8	 mov	 ecx, DWORD PTR _this$[ebp]
  00026	e8 00 00 00 00	 call	 ??1CComBSTR@ATL@@QAE@XZ	; ATL::CComBSTR::~CComBSTR
  0002b	5f		 pop	 edi
  0002c	5e		 pop	 esi
  0002d	5b		 pop	 ebx
  0002e	81 c4 cc 00 00
	00		 add	 esp, 204		; 000000ccH
  00034	3b ec		 cmp	 ebp, esp
  00036	e8 00 00 00 00	 call	 __RTC_CheckEsp
  0003b	8b e5		 mov	 esp, ebp
  0003d	5d		 pop	 ebp
  0003e	c3		 ret	 0
??1stringdispid@CComTypeInfoHolder@ATL@@QAE@XZ ENDP	; ATL::CComTypeInfoHolder::stringdispid::~stringdispid
_TEXT	ENDS
EXTRN	__imp__SysFreeString@4:PROC
; Function compile flags: /Odtp /RTCsu /ZI
; File c:\program files (x86)\microsoft visual studio 9.0\vc\atlmfc\include\atlcomcli.h
;	COMDAT ??1CComBSTR@ATL@@QAE@XZ
_TEXT	SEGMENT
_this$ = -8						; size = 4
??1CComBSTR@ATL@@QAE@XZ PROC				; ATL::CComBSTR::~CComBSTR, COMDAT
; _this$ = ecx

; 1371 : 	{

  00000	55		 push	 ebp
  00001	8b ec		 mov	 ebp, esp
  00003	81 ec cc 00 00
	00		 sub	 esp, 204		; 000000ccH
  00009	53		 push	 ebx
  0000a	56		 push	 esi
  0000b	57		 push	 edi
  0000c	51		 push	 ecx
  0000d	8d bd 34 ff ff
	ff		 lea	 edi, DWORD PTR [ebp-204]
  00013	b9 33 00 00 00	 mov	 ecx, 51			; 00000033H
  00018	b8 cc cc cc cc	 mov	 eax, -858993460		; ccccccccH
  0001d	f3 ab		 rep stosd
  0001f	59		 pop	 ecx
  00020	89 4d f8	 mov	 DWORD PTR _this$[ebp], ecx

; 1372 : 		::SysFreeString(m_str);

  00023	8b f4		 mov	 esi, esp
  00025	8b 45 f8	 mov	 eax, DWORD PTR _this$[ebp]
  00028	8b 08		 mov	 ecx, DWORD PTR [eax]
  0002a	51		 push	 ecx
  0002b	ff 15 00 00 00
	00		 call	 DWORD PTR __imp__SysFreeString@4
  00031	3b f4		 cmp	 esi, esp
  00033	e8 00 00 00 00	 call	 __RTC_CheckEsp

; 1373 : 	}

  00038	5f		 pop	 edi
  00039	5e		 pop	 esi
  0003a	5b		 pop	 ebx
  0003b	81 c4 cc 00 00
	00		 add	 esp, 204		; 000000ccH
  00041	3b ec		 cmp	 ebp, esp
  00043	e8 00 00 00 00	 call	 __RTC_CheckEsp
  00048	8b e5		 mov	 esp, ebp
  0004a	5d		 pop	 ebp
  0004b	c3		 ret	 0
??1CComBSTR@ATL@@QAE@XZ ENDP				; ATL::CComBSTR::~CComBSTR
_TEXT	ENDS
PUBLIC	_DllMain@12
; Function compile flags: /Odtp /RTCsu /ZI
; File f:\lvdun\trunk\code\greenshield\dssetuphelper\dllmain.cpp
;	COMDAT _DllMain@12
_TEXT	SEGMENT
tv64 = -196						; size = 4
_hModule$ = 8						; size = 4
_ul_reason_for_call$ = 12				; size = 4
_lpReserved$ = 16					; size = 4
_DllMain@12 PROC					; COMDAT

; 18   : {

  00000	55		 push	 ebp
  00001	8b ec		 mov	 ebp, esp
  00003	81 ec c4 00 00
	00		 sub	 esp, 196		; 000000c4H
  00009	53		 push	 ebx
  0000a	56		 push	 esi
  0000b	57		 push	 edi
  0000c	8d bd 3c ff ff
	ff		 lea	 edi, DWORD PTR [ebp-196]
  00012	b9 31 00 00 00	 mov	 ecx, 49			; 00000031H
  00017	b8 cc cc cc cc	 mov	 eax, -858993460		; ccccccccH
  0001c	f3 ab		 rep stosd

; 19   : 	switch (ul_reason_for_call)

  0001e	8b 45 0c	 mov	 eax, DWORD PTR _ul_reason_for_call$[ebp]
  00021	89 85 3c ff ff
	ff		 mov	 DWORD PTR tv64[ebp], eax

; 20   : 	{
; 21   : 	case DLL_PROCESS_ATTACH:
; 22   : 	case DLL_THREAD_ATTACH:
; 23   : 	case DLL_THREAD_DETACH:
; 24   : 	case DLL_PROCESS_DETACH:
; 25   : 		break;
; 26   : 	}
; 27   : 	return TRUE;

  00027	b8 01 00 00 00	 mov	 eax, 1

; 28   : }

  0002c	5f		 pop	 edi
  0002d	5e		 pop	 esi
  0002e	5b		 pop	 ebx
  0002f	8b e5		 mov	 esp, ebp
  00031	5d		 pop	 ebp
  00032	c2 0c 00	 ret	 12			; 0000000cH
_DllMain@12 ENDP
_TEXT	ENDS
PUBLIC	__$ArrayPad$
PUBLIC	?SendHttpStatThread@@YGKPAX@Z			; SendHttpStatThread
EXTRN	__imp__CoUninitialize@0:PROC
EXTRN	_URLDownloadToCacheFileW@24:PROC
EXTRN	__imp__CoInitialize@4:PROC
EXTRN	__imp__wcscpy:PROC
EXTRN	___security_cookie:DWORD
EXTRN	@__security_check_cookie@4:PROC
EXTRN	@_RTC_CheckStackVars@8:PROC
EXTRN	__except_handler4:PROC
EXTRN	_memset:PROC
;	COMDAT xdata$x
xdata$x	SEGMENT
__sehtable$?SendHttpStatThread@@YGKPAX@Z DD 0ffffffe4H
	DD	00H
	DD	0fffffae8H
	DD	00H
	DD	0fffffffeH
	DD	FLAT:$LN5@SendHttpSt
	DD	FLAT:$LN6@SendHttpSt
; Function compile flags: /Odtp /RTCsu /ZI
xdata$x	ENDS
;	COMDAT ?SendHttpStatThread@@YGKPAX@Z
_TEXT	SEGMENT
_hr$ = -1092						; size = 4
_szBuffer$ = -1080					; size = 520
_szUrl$ = -552						; size = 520
__$ArrayPad$ = -28					; size = 4
__$SEHRec$ = -24					; size = 24
_pParameter$ = 8					; size = 4
?SendHttpStatThread@@YGKPAX@Z PROC			; SendHttpStatThread, COMDAT

; 31   : {

  00000	55		 push	 ebp
  00001	8b ec		 mov	 ebp, esp
  00003	6a fe		 push	 -2			; fffffffeH
  00005	68 00 00 00 00	 push	 OFFSET __sehtable$?SendHttpStatThread@@YGKPAX@Z
  0000a	68 00 00 00 00	 push	 OFFSET __except_handler4
  0000f	64 a1 00 00 00
	00		 mov	 eax, DWORD PTR fs:0
  00015	50		 push	 eax
  00016	81 c4 08 fb ff
	ff		 add	 esp, -1272		; fffffb08H
  0001c	53		 push	 ebx
  0001d	56		 push	 esi
  0001e	57		 push	 edi
  0001f	8d bd f8 fa ff
	ff		 lea	 edi, DWORD PTR [ebp-1288]
  00025	b9 3c 01 00 00	 mov	 ecx, 316		; 0000013cH
  0002a	b8 cc cc cc cc	 mov	 eax, -858993460		; ccccccccH
  0002f	f3 ab		 rep stosd
  00031	a1 00 00 00 00	 mov	 eax, DWORD PTR ___security_cookie
  00036	31 45 f8	 xor	 DWORD PTR __$SEHRec$[ebp+16], eax
  00039	33 c5		 xor	 eax, ebp
  0003b	89 45 e4	 mov	 DWORD PTR __$ArrayPad$[ebp], eax
  0003e	50		 push	 eax
  0003f	8d 45 f0	 lea	 eax, DWORD PTR __$SEHRec$[ebp+8]
  00042	64 a3 00 00 00
	00		 mov	 DWORD PTR fs:0, eax
  00048	89 65 e8	 mov	 DWORD PTR __$SEHRec$[ebp], esp

; 32   : 	TSAUTO();
; 33   : 	TCHAR szUrl[MAX_PATH] = {0};

  0004b	33 c0		 xor	 eax, eax
  0004d	66 89 85 d8 fd
	ff ff		 mov	 WORD PTR _szUrl$[ebp], ax
  00054	68 06 02 00 00	 push	 518			; 00000206H
  00059	6a 00		 push	 0
  0005b	8d 85 da fd ff
	ff		 lea	 eax, DWORD PTR _szUrl$[ebp+2]
  00061	50		 push	 eax
  00062	e8 00 00 00 00	 call	 _memset
  00067	83 c4 0c	 add	 esp, 12			; 0000000cH

; 34   : 	_tcscpy(szUrl,(LPCWSTR)pParameter);

  0006a	8b f4		 mov	 esi, esp
  0006c	8b 45 08	 mov	 eax, DWORD PTR _pParameter$[ebp]
  0006f	50		 push	 eax
  00070	8d 8d d8 fd ff
	ff		 lea	 ecx, DWORD PTR _szUrl$[ebp]
  00076	51		 push	 ecx
  00077	ff 15 00 00 00
	00		 call	 DWORD PTR __imp__wcscpy
  0007d	83 c4 08	 add	 esp, 8
  00080	3b f4		 cmp	 esi, esp
  00082	e8 00 00 00 00	 call	 __RTC_CheckEsp

; 35   : 
; 36   : 	TCHAR szBuffer[MAX_PATH] = {0};

  00087	33 c0		 xor	 eax, eax
  00089	66 89 85 c8 fb
	ff ff		 mov	 WORD PTR _szBuffer$[ebp], ax
  00090	68 06 02 00 00	 push	 518			; 00000206H
  00095	6a 00		 push	 0
  00097	8d 85 ca fb ff
	ff		 lea	 eax, DWORD PTR _szBuffer$[ebp+2]
  0009d	50		 push	 eax
  0009e	e8 00 00 00 00	 call	 _memset
  000a3	83 c4 0c	 add	 esp, 12			; 0000000cH

; 37   : 	::CoInitialize(NULL);

  000a6	8b f4		 mov	 esi, esp
  000a8	6a 00		 push	 0
  000aa	ff 15 00 00 00
	00		 call	 DWORD PTR __imp__CoInitialize@4
  000b0	3b f4		 cmp	 esi, esp
  000b2	e8 00 00 00 00	 call	 __RTC_CheckEsp

; 38   : 	HRESULT hr = E_FAIL;

  000b7	c7 85 bc fb ff
	ff 05 40 00 80	 mov	 DWORD PTR _hr$[ebp], -2147467259 ; 80004005H

; 39   : 	__try

  000c1	c7 45 fc 00 00
	00 00		 mov	 DWORD PTR __$SEHRec$[ebp+20], 0

; 40   : 	{
; 41   : 		hr = ::URLDownloadToCacheFile(NULL, szUrl, szBuffer, MAX_PATH, 0, NULL);

  000c8	6a 00		 push	 0
  000ca	6a 00		 push	 0
  000cc	68 04 01 00 00	 push	 260			; 00000104H
  000d1	8d 85 c8 fb ff
	ff		 lea	 eax, DWORD PTR _szBuffer$[ebp]
  000d7	50		 push	 eax
  000d8	8d 8d d8 fd ff
	ff		 lea	 ecx, DWORD PTR _szUrl$[ebp]
  000de	51		 push	 ecx
  000df	6a 00		 push	 0
  000e1	e8 00 00 00 00	 call	 _URLDownloadToCacheFileW@24
  000e6	89 85 bc fb ff
	ff		 mov	 DWORD PTR _hr$[ebp], eax

; 42   : 	}

  000ec	c7 45 fc fe ff
	ff ff		 mov	 DWORD PTR __$SEHRec$[ebp+20], -2 ; fffffffeH
  000f3	eb 10		 jmp	 SHORT $LN8@SendHttpSt
$LN5@SendHttpSt:
$LN15@SendHttpSt:

; 43   : 	__except(EXCEPTION_EXECUTE_HANDLER)

  000f5	b8 01 00 00 00	 mov	 eax, 1
$LN7@SendHttpSt:
$LN14@SendHttpSt:
  000fa	c3		 ret	 0
$LN6@SendHttpSt:
  000fb	8b 65 e8	 mov	 esp, DWORD PTR __$SEHRec$[ebp]

; 44   : 	{
; 45   : 		TSDEBUG4CXX("URLDownloadToCacheFile Exception !!!");
; 46   : 	}

  000fe	c7 45 fc fe ff
	ff ff		 mov	 DWORD PTR __$SEHRec$[ebp+20], -2 ; fffffffeH
$LN8@SendHttpSt:

; 47   : 	::CoUninitialize();

  00105	8b f4		 mov	 esi, esp
  00107	ff 15 00 00 00
	00		 call	 DWORD PTR __imp__CoUninitialize@0
  0010d	3b f4		 cmp	 esi, esp
  0010f	e8 00 00 00 00	 call	 __RTC_CheckEsp

; 48   : 
; 49   : 	return SUCCEEDED(hr)?ERROR_SUCCESS:0xFF;

  00114	33 c0		 xor	 eax, eax
  00116	83 bd bc fb ff
	ff 00		 cmp	 DWORD PTR _hr$[ebp], 0
  0011d	0f 9d c0	 setge	 al
  00120	83 e8 01	 sub	 eax, 1
  00123	25 ff 00 00 00	 and	 eax, 255		; 000000ffH
$LN4@SendHttpSt:

; 50   : }

  00128	52		 push	 edx
  00129	8b cd		 mov	 ecx, ebp
  0012b	50		 push	 eax
  0012c	8d 15 00 00 00
	00		 lea	 edx, DWORD PTR $LN13@SendHttpSt
  00132	e8 00 00 00 00	 call	 @_RTC_CheckStackVars@8
  00137	58		 pop	 eax
  00138	5a		 pop	 edx
  00139	8b 4d f0	 mov	 ecx, DWORD PTR __$SEHRec$[ebp+8]
  0013c	64 89 0d 00 00
	00 00		 mov	 DWORD PTR fs:0, ecx
  00143	59		 pop	 ecx
  00144	5f		 pop	 edi
  00145	5e		 pop	 esi
  00146	5b		 pop	 ebx
  00147	8b 4d e4	 mov	 ecx, DWORD PTR __$ArrayPad$[ebp]
  0014a	33 cd		 xor	 ecx, ebp
  0014c	e8 00 00 00 00	 call	 @__security_check_cookie@4
  00151	81 c4 08 05 00
	00		 add	 esp, 1288		; 00000508H
  00157	3b ec		 cmp	 ebp, esp
  00159	e8 00 00 00 00	 call	 __RTC_CheckEsp
  0015e	8b e5		 mov	 esp, ebp
  00160	5d		 pop	 ebp
  00161	c2 04 00	 ret	 4
$LN13@SendHttpSt:
  00164	03 00 00 00	 DD	 3
  00168	00 00 00 00	 DD	 $LN12@SendHttpSt
$LN12@SendHttpSt:
  0016c	d8 fd ff ff	 DD	 -552			; fffffdd8H
  00170	08 02 00 00	 DD	 520			; 00000208H
  00174	00 00 00 00	 DD	 $LN9@SendHttpSt
  00178	c8 fb ff ff	 DD	 -1080			; fffffbc8H
  0017c	08 02 00 00	 DD	 520			; 00000208H
  00180	00 00 00 00	 DD	 $LN10@SendHttpSt
  00184	bc fb ff ff	 DD	 -1092			; fffffbbcH
  00188	04 00 00 00	 DD	 4
  0018c	00 00 00 00	 DD	 $LN11@SendHttpSt
$LN11@SendHttpSt:
  00190	68		 DB	 104			; 00000068H
  00191	72		 DB	 114			; 00000072H
  00192	00		 DB	 0
$LN10@SendHttpSt:
  00193	73		 DB	 115			; 00000073H
  00194	7a		 DB	 122			; 0000007aH
  00195	42		 DB	 66			; 00000042H
  00196	75		 DB	 117			; 00000075H
  00197	66		 DB	 102			; 00000066H
  00198	66		 DB	 102			; 00000066H
  00199	65		 DB	 101			; 00000065H
  0019a	72		 DB	 114			; 00000072H
  0019b	00		 DB	 0
$LN9@SendHttpSt:
  0019c	73		 DB	 115			; 00000073H
  0019d	7a		 DB	 122			; 0000007aH
  0019e	55		 DB	 85			; 00000055H
  0019f	72		 DB	 114			; 00000072H
  001a0	6c		 DB	 108			; 0000006cH
  001a1	00		 DB	 0
?SendHttpStatThread@@YGKPAX@Z ENDP			; SendHttpStatThread
_TEXT	ENDS
PUBLIC	?Detach@CComBSTR@ATL@@QAEPA_WXZ			; ATL::CComBSTR::Detach
PUBLIC	??0CComBSTR@ATL@@QAE@PB_W@Z			; ATL::CComBSTR::CComBSTR
PUBLIC	??_C@_1LG@ECBDHOMN@?$AAh?$AAt?$AAt?$AAp?$AA?3?$AA?1?$AA?1?$AAw?$AAw?$AAw?$AA?4?$AAg?$AAo?$AAo?$AAg?$AAl?$AAe?$AA?9?$AAa?$AAn?$AAa?$AAl?$AAy?$AAt?$AAi?$AAc?$AAs?$AA?4?$AAc?$AAo?$AAm?$AA?1@ ; `string'
PUBLIC	??_C@_1BA@HDAKKJKM@?$AA?$CG?$AAe?$AAv?$AA?$DN?$AA?$CF?$AAl?$AAd?$AA?$AA@ ; `string'
PUBLIC	??_C@_19LLEKKFJM@?$AA?$CG?$AAe?$AAl?$AA?$DN?$AA?$AA@ ; `string'
PUBLIC	??_C@_11LOCGONAA@?$AA?$AA@			; `string'
PUBLIC	??0_Has_debug_it@?$basic_string@_WU?$char_traits@_W@std@@V?$allocator@_W@2@@std@@QAE@_N@Z ; std::basic_string<wchar_t,std::char_traits<wchar_t>,std::allocator<wchar_t> >::_Has_debug_it::_Has_debug_it
PUBLIC	__$ArrayPad$
PUBLIC	_SendAnyHttpStat
EXTRN	__imp_??1?$basic_string@_WU?$char_traits@_W@std@@V?$allocator@_W@2@@std@@QAE@XZ:PROC
EXTRN	__imp__CloseHandle@4:PROC
EXTRN	__imp__CreateThread@24:PROC
EXTRN	__imp_?c_str@?$basic_string@_WU?$char_traits@_W@std@@V?$allocator@_W@2@@std@@QBEPB_WXZ:PROC
EXTRN	__imp___swprintf:PROC
EXTRN	__imp_??Y?$basic_string@_WU?$char_traits@_W@std@@V?$allocator@_W@2@@std@@QAEAAV01@PB_W@Z:PROC
EXTRN	__imp_??0?$basic_string@_WU?$char_traits@_W@std@@V?$allocator@_W@2@@std@@QAE@PB_W@Z:PROC
EXTRN	__imp_??0?$basic_string@_WU?$char_traits@_W@std@@V?$allocator@_W@2@@std@@QAE@U_Has_debug_it@01@@Z:PROC
;	COMDAT ??_C@_1LG@ECBDHOMN@?$AAh?$AAt?$AAt?$AAp?$AA?3?$AA?1?$AA?1?$AAw?$AAw?$AAw?$AA?4?$AAg?$AAo?$AAo?$AAg?$AAl?$AAe?$AA?9?$AAa?$AAn?$AAa?$AAl?$AAy?$AAt?$AAi?$AAc?$AAs?$AA?4?$AAc?$AAo?$AAm?$AA?1@
CONST	SEGMENT
??_C@_1LG@ECBDHOMN@?$AAh?$AAt?$AAt?$AAp?$AA?3?$AA?1?$AA?1?$AAw?$AAw?$AAw?$AA?4?$AAg?$AAo?$AAo?$AAg?$AAl?$AAe?$AA?9?$AAa?$AAn?$AAa?$AAl?$AAy?$AAt?$AAi?$AAc?$AAs?$AA?4?$AAc?$AAo?$AAm?$AA?1@ DB 'h'
	DB	00H, 't', 00H, 't', 00H, 'p', 00H, ':', 00H, '/', 00H, '/', 00H
	DB	'w', 00H, 'w', 00H, 'w', 00H, '.', 00H, 'g', 00H, 'o', 00H, 'o'
	DB	00H, 'g', 00H, 'l', 00H, 'e', 00H, '-', 00H, 'a', 00H, 'n', 00H
	DB	'a', 00H, 'l', 00H, 'y', 00H, 't', 00H, 'i', 00H, 'c', 00H, 's'
	DB	00H, '.', 00H, 'c', 00H, 'o', 00H, 'm', 00H, '/', 00H, 'c', 00H
	DB	'o', 00H, 'l', 00H, 'l', 00H, 'e', 00H, 'c', 00H, 't', 00H, '?'
	DB	00H, 'v', 00H, '=', 00H, '1', 00H, '&', 00H, 't', 00H, 'i', 00H
	DB	'd', 00H, '=', 00H, 'U', 00H, 'A', 00H, '-', 00H, '5', 00H, '5'
	DB	00H, '1', 00H, '2', 00H, '2', 00H, '7', 00H, '9', 00H, '0', 00H
	DB	'-', 00H, '1', 00H, '&', 00H, 'c', 00H, 'i', 00H, 'd', 00H, '='
	DB	00H, '%', 00H, 's', 00H, '&', 00H, 't', 00H, '=', 00H, 'e', 00H
	DB	'v', 00H, 'e', 00H, 'n', 00H, 't', 00H, '&', 00H, 'e', 00H, 'c'
	DB	00H, '=', 00H, '%', 00H, 's', 00H, '&', 00H, 'e', 00H, 'a', 00H
	DB	'=', 00H, '%', 00H, 's', 00H, '%', 00H, 's', 00H, 00H, 00H ; `string'
CONST	ENDS
;	COMDAT ??_C@_1BA@HDAKKJKM@?$AA?$CG?$AAe?$AAv?$AA?$DN?$AA?$CF?$AAl?$AAd?$AA?$AA@
CONST	SEGMENT
??_C@_1BA@HDAKKJKM@?$AA?$CG?$AAe?$AAv?$AA?$DN?$AA?$CF?$AAl?$AAd?$AA?$AA@ DB '&'
	DB	00H, 'e', 00H, 'v', 00H, '=', 00H, '%', 00H, 'l', 00H, 'd', 00H
	DB	00H, 00H					; `string'
CONST	ENDS
;	COMDAT ??_C@_19LLEKKFJM@?$AA?$CG?$AAe?$AAl?$AA?$DN?$AA?$AA@
CONST	SEGMENT
??_C@_19LLEKKFJM@?$AA?$CG?$AAe?$AAl?$AA?$DN?$AA?$AA@ DB '&', 00H, 'e', 00H
	DB	'l', 00H, '=', 00H, 00H, 00H			; `string'
CONST	ENDS
;	COMDAT ??_C@_11LOCGONAA@?$AA?$AA@
CONST	SEGMENT
??_C@_11LOCGONAA@?$AA?$AA@ DB 00H, 00H			; `string'
; Function compile flags: /Odtp /RTCsu /ZI
CONST	ENDS
;	COMDAT _SendAnyHttpStat
_TEXT	SEGMENT
$T144313 = -1373					; size = 1
_hThread$ = -1172					; size = 4
_dwThreadId$ = -1160					; size = 4
_bstrUrl$ = -1148					; size = 4
_szev$132197 = -1136					; size = 520
_str$ = -608						; size = 32
_strPeerID$ = -568					; size = 32
_szURL$ = -528						; size = 520
__$ArrayPad$ = -4					; size = 4
_ec$ = 8						; size = 4
_ea$ = 12						; size = 4
_el$ = 16						; size = 4
_ev$ = 20						; size = 4
_SendAnyHttpStat PROC					; COMDAT

; 53   : {

  00000	55		 push	 ebp
  00001	8b ec		 mov	 ebp, esp
  00003	81 ec 64 05 00
	00		 sub	 esp, 1380		; 00000564H
  00009	53		 push	 ebx
  0000a	56		 push	 esi
  0000b	57		 push	 edi
  0000c	8d bd 9c fa ff
	ff		 lea	 edi, DWORD PTR [ebp-1380]
  00012	b9 59 01 00 00	 mov	 ecx, 345		; 00000159H
  00017	b8 cc cc cc cc	 mov	 eax, -858993460		; ccccccccH
  0001c	f3 ab		 rep stosd
  0001e	a1 00 00 00 00	 mov	 eax, DWORD PTR ___security_cookie
  00023	33 c5		 xor	 eax, ebp
  00025	89 45 fc	 mov	 DWORD PTR __$ArrayPad$[ebp], eax

; 54   : 	if (ec == NULL || ea == NULL)

  00028	83 7d 08 00	 cmp	 DWORD PTR _ec$[ebp], 0
  0002c	74 06		 je	 SHORT $LN3@SendAnyHtt
  0002e	83 7d 0c 00	 cmp	 DWORD PTR _ea$[ebp], 0
  00032	75 05		 jne	 SHORT $LN4@SendAnyHtt
$LN3@SendAnyHtt:

; 55   : 	{
; 56   : 		return ;

  00034	e9 f6 01 00 00	 jmp	 $LN5@SendAnyHtt
$LN4@SendAnyHtt:

; 57   : 	}
; 58   : 
; 59   : 	TSAUTO();
; 60   : 	TCHAR szURL[MAX_PATH] = {0};

  00039	33 c0		 xor	 eax, eax
  0003b	66 89 85 f0 fd
	ff ff		 mov	 WORD PTR _szURL$[ebp], ax
  00042	68 06 02 00 00	 push	 518			; 00000206H
  00047	6a 00		 push	 0
  00049	8d 85 f2 fd ff
	ff		 lea	 eax, DWORD PTR _szURL$[ebp+2]
  0004f	50		 push	 eax
  00050	e8 00 00 00 00	 call	 _memset
  00055	83 c4 0c	 add	 esp, 12			; 0000000cH

; 61   : 	std::wstring strPeerID;

  00058	6a 01		 push	 1
  0005a	8d 8d a3 fa ff
	ff		 lea	 ecx, DWORD PTR $T144313[ebp]
  00060	e8 00 00 00 00	 call	 ??0_Has_debug_it@?$basic_string@_WU?$char_traits@_W@std@@V?$allocator@_W@2@@std@@QAE@_N@Z ; std::basic_string<wchar_t,std::char_traits<wchar_t>,std::allocator<wchar_t> >::_Has_debug_it::_Has_debug_it
  00065	8b f4		 mov	 esi, esp
  00067	0f b6 00	 movzx	 eax, BYTE PTR [eax]
  0006a	50		 push	 eax
  0006b	8d 8d c8 fd ff
	ff		 lea	 ecx, DWORD PTR _strPeerID$[ebp]
  00071	ff 15 00 00 00
	00		 call	 DWORD PTR __imp_??0?$basic_string@_WU?$char_traits@_W@std@@V?$allocator@_W@2@@std@@QAE@U_Has_debug_it@01@@Z
  00077	3b f4		 cmp	 esi, esp
  00079	e8 00 00 00 00	 call	 __RTC_CheckEsp

; 62   : 	GetPeerId_(strPeerID);

  0007e	8d 85 c8 fd ff
	ff		 lea	 eax, DWORD PTR _strPeerID$[ebp]
  00084	50		 push	 eax
  00085	e8 00 00 00 00	 call	 ?GetPeerId_@@YAXAAV?$basic_string@_WU?$char_traits@_W@std@@V?$allocator@_W@2@@std@@@Z ; GetPeerId_
  0008a	83 c4 04	 add	 esp, 4

; 63   : 	std::wstring str = L"";

  0008d	8b f4		 mov	 esi, esp
  0008f	68 00 00 00 00	 push	 OFFSET ??_C@_11LOCGONAA@?$AA?$AA@
  00094	8d 8d a0 fd ff
	ff		 lea	 ecx, DWORD PTR _str$[ebp]
  0009a	ff 15 00 00 00
	00		 call	 DWORD PTR __imp_??0?$basic_string@_WU?$char_traits@_W@std@@V?$allocator@_W@2@@std@@QAE@PB_W@Z
  000a0	3b f4		 cmp	 esi, esp
  000a2	e8 00 00 00 00	 call	 __RTC_CheckEsp

; 64   : 	if (el != NULL )

  000a7	83 7d 10 00	 cmp	 DWORD PTR _el$[ebp], 0
  000ab	74 33		 je	 SHORT $LN2@SendAnyHtt

; 65   : 	{
; 66   : 		str +=L"&el=";

  000ad	8b f4		 mov	 esi, esp
  000af	68 00 00 00 00	 push	 OFFSET ??_C@_19LLEKKFJM@?$AA?$CG?$AAe?$AAl?$AA?$DN?$AA?$AA@
  000b4	8d 8d a0 fd ff
	ff		 lea	 ecx, DWORD PTR _str$[ebp]
  000ba	ff 15 00 00 00
	00		 call	 DWORD PTR __imp_??Y?$basic_string@_WU?$char_traits@_W@std@@V?$allocator@_W@2@@std@@QAEAAV01@PB_W@Z
  000c0	3b f4		 cmp	 esi, esp
  000c2	e8 00 00 00 00	 call	 __RTC_CheckEsp

; 67   : 		str +=el;

  000c7	8b f4		 mov	 esi, esp
  000c9	8b 45 10	 mov	 eax, DWORD PTR _el$[ebp]
  000cc	50		 push	 eax
  000cd	8d 8d a0 fd ff
	ff		 lea	 ecx, DWORD PTR _str$[ebp]
  000d3	ff 15 00 00 00
	00		 call	 DWORD PTR __imp_??Y?$basic_string@_WU?$char_traits@_W@std@@V?$allocator@_W@2@@std@@QAEAAV01@PB_W@Z
  000d9	3b f4		 cmp	 esi, esp
  000db	e8 00 00 00 00	 call	 __RTC_CheckEsp
$LN2@SendAnyHtt:

; 68   : 	}
; 69   : 	if (ev != 0)

  000e0	83 7d 14 00	 cmp	 DWORD PTR _ev$[ebp], 0
  000e4	74 5d		 je	 SHORT $LN1@SendAnyHtt

; 70   : 	{
; 71   : 		TCHAR szev[MAX_PATH] = {0};

  000e6	33 c0		 xor	 eax, eax
  000e8	66 89 85 90 fb
	ff ff		 mov	 WORD PTR _szev$132197[ebp], ax
  000ef	68 06 02 00 00	 push	 518			; 00000206H
  000f4	6a 00		 push	 0
  000f6	8d 85 92 fb ff
	ff		 lea	 eax, DWORD PTR _szev$132197[ebp+2]
  000fc	50		 push	 eax
  000fd	e8 00 00 00 00	 call	 _memset
  00102	83 c4 0c	 add	 esp, 12			; 0000000cH

; 72   : 		_stprintf(szev,L"&ev=%ld",ev);

  00105	8b f4		 mov	 esi, esp
  00107	8b 45 14	 mov	 eax, DWORD PTR _ev$[ebp]
  0010a	50		 push	 eax
  0010b	68 00 00 00 00	 push	 OFFSET ??_C@_1BA@HDAKKJKM@?$AA?$CG?$AAe?$AAv?$AA?$DN?$AA?$CF?$AAl?$AAd?$AA?$AA@
  00110	8d 8d 90 fb ff
	ff		 lea	 ecx, DWORD PTR _szev$132197[ebp]
  00116	51		 push	 ecx
  00117	ff 15 00 00 00
	00		 call	 DWORD PTR __imp___swprintf
  0011d	83 c4 0c	 add	 esp, 12			; 0000000cH
  00120	3b f4		 cmp	 esi, esp
  00122	e8 00 00 00 00	 call	 __RTC_CheckEsp

; 73   : 		str += szev;

  00127	8b f4		 mov	 esi, esp
  00129	8d 85 90 fb ff
	ff		 lea	 eax, DWORD PTR _szev$132197[ebp]
  0012f	50		 push	 eax
  00130	8d 8d a0 fd ff
	ff		 lea	 ecx, DWORD PTR _str$[ebp]
  00136	ff 15 00 00 00
	00		 call	 DWORD PTR __imp_??Y?$basic_string@_WU?$char_traits@_W@std@@V?$allocator@_W@2@@std@@QAEAAV01@PB_W@Z
  0013c	3b f4		 cmp	 esi, esp
  0013e	e8 00 00 00 00	 call	 __RTC_CheckEsp
$LN1@SendAnyHtt:

; 74   : 	}
; 75   : 	_stprintf(szURL, _T("http://www.google-analytics.com/collect?v=1&tid=UA-55122790-1&cid=%s&t=event&ec=%s&ea=%s%s"),strPeerID.c_str(),ec,ea,str.c_str());

  00143	8b f4		 mov	 esi, esp
  00145	8d 8d a0 fd ff
	ff		 lea	 ecx, DWORD PTR _str$[ebp]
  0014b	ff 15 00 00 00
	00		 call	 DWORD PTR __imp_?c_str@?$basic_string@_WU?$char_traits@_W@std@@V?$allocator@_W@2@@std@@QBEPB_WXZ
  00151	3b f4		 cmp	 esi, esp
  00153	e8 00 00 00 00	 call	 __RTC_CheckEsp
  00158	8b f4		 mov	 esi, esp
  0015a	50		 push	 eax
  0015b	8b 45 0c	 mov	 eax, DWORD PTR _ea$[ebp]
  0015e	50		 push	 eax
  0015f	8b 4d 08	 mov	 ecx, DWORD PTR _ec$[ebp]
  00162	51		 push	 ecx
  00163	8b fc		 mov	 edi, esp
  00165	8d 8d c8 fd ff
	ff		 lea	 ecx, DWORD PTR _strPeerID$[ebp]
  0016b	ff 15 00 00 00
	00		 call	 DWORD PTR __imp_?c_str@?$basic_string@_WU?$char_traits@_W@std@@V?$allocator@_W@2@@std@@QBEPB_WXZ
  00171	3b fc		 cmp	 edi, esp
  00173	e8 00 00 00 00	 call	 __RTC_CheckEsp
  00178	50		 push	 eax
  00179	68 00 00 00 00	 push	 OFFSET ??_C@_1LG@ECBDHOMN@?$AAh?$AAt?$AAt?$AAp?$AA?3?$AA?1?$AA?1?$AAw?$AAw?$AAw?$AA?4?$AAg?$AAo?$AAo?$AAg?$AAl?$AAe?$AA?9?$AAa?$AAn?$AAa?$AAl?$AAy?$AAt?$AAi?$AAc?$AAs?$AA?4?$AAc?$AAo?$AAm?$AA?1@
  0017e	8d 95 f0 fd ff
	ff		 lea	 edx, DWORD PTR _szURL$[ebp]
  00184	52		 push	 edx
  00185	ff 15 00 00 00
	00		 call	 DWORD PTR __imp___swprintf
  0018b	83 c4 18	 add	 esp, 24			; 00000018H
  0018e	3b f4		 cmp	 esi, esp
  00190	e8 00 00 00 00	 call	 __RTC_CheckEsp

; 76   : 
; 77   : 	CComBSTR bstrUrl(szURL);

  00195	8d 85 f0 fd ff
	ff		 lea	 eax, DWORD PTR _szURL$[ebp]
  0019b	50		 push	 eax
  0019c	8d 8d 84 fb ff
	ff		 lea	 ecx, DWORD PTR _bstrUrl$[ebp]
  001a2	e8 00 00 00 00	 call	 ??0CComBSTR@ATL@@QAE@PB_W@Z ; ATL::CComBSTR::CComBSTR

; 78   : 	DWORD dwThreadId = 0;

  001a7	c7 85 78 fb ff
	ff 00 00 00 00	 mov	 DWORD PTR _dwThreadId$[ebp], 0

; 79   : 	HANDLE hThread = CreateThread(NULL, 0, SendHttpStatThread, (LPVOID) bstrUrl.Detach(),0, &dwThreadId);

  001b1	8b f4		 mov	 esi, esp
  001b3	8d 85 78 fb ff
	ff		 lea	 eax, DWORD PTR _dwThreadId$[ebp]
  001b9	50		 push	 eax
  001ba	6a 00		 push	 0
  001bc	8d 8d 84 fb ff
	ff		 lea	 ecx, DWORD PTR _bstrUrl$[ebp]
  001c2	e8 00 00 00 00	 call	 ?Detach@CComBSTR@ATL@@QAEPA_WXZ ; ATL::CComBSTR::Detach
  001c7	50		 push	 eax
  001c8	68 00 00 00 00	 push	 OFFSET ?SendHttpStatThread@@YGKPAX@Z ; SendHttpStatThread
  001cd	6a 00		 push	 0
  001cf	6a 00		 push	 0
  001d1	ff 15 00 00 00
	00		 call	 DWORD PTR __imp__CreateThread@24
  001d7	3b f4		 cmp	 esi, esp
  001d9	e8 00 00 00 00	 call	 __RTC_CheckEsp
  001de	89 85 6c fb ff
	ff		 mov	 DWORD PTR _hThread$[ebp], eax

; 80   : 	CloseHandle(hThread);

  001e4	8b f4		 mov	 esi, esp
  001e6	8b 85 6c fb ff
	ff		 mov	 eax, DWORD PTR _hThread$[ebp]
  001ec	50		 push	 eax
  001ed	ff 15 00 00 00
	00		 call	 DWORD PTR __imp__CloseHandle@4
  001f3	3b f4		 cmp	 esi, esp
  001f5	e8 00 00 00 00	 call	 __RTC_CheckEsp

; 81   : }

  001fa	8d 8d 84 fb ff
	ff		 lea	 ecx, DWORD PTR _bstrUrl$[ebp]
  00200	e8 00 00 00 00	 call	 ??1CComBSTR@ATL@@QAE@XZ	; ATL::CComBSTR::~CComBSTR
  00205	8b f4		 mov	 esi, esp
  00207	8d 8d a0 fd ff
	ff		 lea	 ecx, DWORD PTR _str$[ebp]
  0020d	ff 15 00 00 00
	00		 call	 DWORD PTR __imp_??1?$basic_string@_WU?$char_traits@_W@std@@V?$allocator@_W@2@@std@@QAE@XZ
  00213	3b f4		 cmp	 esi, esp
  00215	e8 00 00 00 00	 call	 __RTC_CheckEsp
  0021a	8b f4		 mov	 esi, esp
  0021c	8d 8d c8 fd ff
	ff		 lea	 ecx, DWORD PTR _strPeerID$[ebp]
  00222	ff 15 00 00 00
	00		 call	 DWORD PTR __imp_??1?$basic_string@_WU?$char_traits@_W@std@@V?$allocator@_W@2@@std@@QAE@XZ
  00228	3b f4		 cmp	 esi, esp
  0022a	e8 00 00 00 00	 call	 __RTC_CheckEsp
$LN5@SendAnyHtt:
  0022f	52		 push	 edx
  00230	8b cd		 mov	 ecx, ebp
  00232	50		 push	 eax
  00233	8d 15 00 00 00
	00		 lea	 edx, DWORD PTR $LN14@SendAnyHtt
  00239	e8 00 00 00 00	 call	 @_RTC_CheckStackVars@8
  0023e	58		 pop	 eax
  0023f	5a		 pop	 edx
  00240	5f		 pop	 edi
  00241	5e		 pop	 esi
  00242	5b		 pop	 ebx
  00243	8b 4d fc	 mov	 ecx, DWORD PTR __$ArrayPad$[ebp]
  00246	33 cd		 xor	 ecx, ebp
  00248	e8 00 00 00 00	 call	 @__security_check_cookie@4
  0024d	81 c4 64 05 00
	00		 add	 esp, 1380		; 00000564H
  00253	3b ec		 cmp	 ebp, esp
  00255	e8 00 00 00 00	 call	 __RTC_CheckEsp
  0025a	8b e5		 mov	 esp, ebp
  0025c	5d		 pop	 ebp
  0025d	c3		 ret	 0
  0025e	8b ff		 npad	 2
$LN14@SendAnyHtt:
  00260	06 00 00 00	 DD	 6
  00264	00 00 00 00	 DD	 $LN13@SendAnyHtt
$LN13@SendAnyHtt:
  00268	f0 fd ff ff	 DD	 -528			; fffffdf0H
  0026c	08 02 00 00	 DD	 520			; 00000208H
  00270	00 00 00 00	 DD	 $LN7@SendAnyHtt
  00274	c8 fd ff ff	 DD	 -568			; fffffdc8H
  00278	20 00 00 00	 DD	 32			; 00000020H
  0027c	00 00 00 00	 DD	 $LN8@SendAnyHtt
  00280	a0 fd ff ff	 DD	 -608			; fffffda0H
  00284	20 00 00 00	 DD	 32			; 00000020H
  00288	00 00 00 00	 DD	 $LN9@SendAnyHtt
  0028c	90 fb ff ff	 DD	 -1136			; fffffb90H
  00290	08 02 00 00	 DD	 520			; 00000208H
  00294	00 00 00 00	 DD	 $LN10@SendAnyHtt
  00298	84 fb ff ff	 DD	 -1148			; fffffb84H
  0029c	04 00 00 00	 DD	 4
  002a0	00 00 00 00	 DD	 $LN11@SendAnyHtt
  002a4	78 fb ff ff	 DD	 -1160			; fffffb78H
  002a8	04 00 00 00	 DD	 4
  002ac	00 00 00 00	 DD	 $LN12@SendAnyHtt
$LN12@SendAnyHtt:
  002b0	64		 DB	 100			; 00000064H
  002b1	77		 DB	 119			; 00000077H
  002b2	54		 DB	 84			; 00000054H
  002b3	68		 DB	 104			; 00000068H
  002b4	72		 DB	 114			; 00000072H
  002b5	65		 DB	 101			; 00000065H
  002b6	61		 DB	 97			; 00000061H
  002b7	64		 DB	 100			; 00000064H
  002b8	49		 DB	 73			; 00000049H
  002b9	64		 DB	 100			; 00000064H
  002ba	00		 DB	 0
$LN11@SendAnyHtt:
  002bb	62		 DB	 98			; 00000062H
  002bc	73		 DB	 115			; 00000073H
  002bd	74		 DB	 116			; 00000074H
  002be	72		 DB	 114			; 00000072H
  002bf	55		 DB	 85			; 00000055H
  002c0	72		 DB	 114			; 00000072H
  002c1	6c		 DB	 108			; 0000006cH
  002c2	00		 DB	 0
$LN10@SendAnyHtt:
  002c3	73		 DB	 115			; 00000073H
  002c4	7a		 DB	 122			; 0000007aH
  002c5	65		 DB	 101			; 00000065H
  002c6	76		 DB	 118			; 00000076H
  002c7	00		 DB	 0
$LN9@SendAnyHtt:
  002c8	73		 DB	 115			; 00000073H
  002c9	74		 DB	 116			; 00000074H
  002ca	72		 DB	 114			; 00000072H
  002cb	00		 DB	 0
$LN8@SendAnyHtt:
  002cc	73		 DB	 115			; 00000073H
  002cd	74		 DB	 116			; 00000074H
  002ce	72		 DB	 114			; 00000072H
  002cf	50		 DB	 80			; 00000050H
  002d0	65		 DB	 101			; 00000065H
  002d1	65		 DB	 101			; 00000065H
  002d2	72		 DB	 114			; 00000072H
  002d3	49		 DB	 73			; 00000049H
  002d4	44		 DB	 68			; 00000044H
  002d5	00		 DB	 0
$LN7@SendAnyHtt:
  002d6	73		 DB	 115			; 00000073H
  002d7	7a		 DB	 122			; 0000007aH
  002d8	55		 DB	 85			; 00000055H
  002d9	52		 DB	 82			; 00000052H
  002da	4c		 DB	 76			; 0000004cH
  002db	00		 DB	 0
_SendAnyHttpStat ENDP
_TEXT	ENDS
PUBLIC	??_C@_15BHOFONJE@?$AA?$CF?$AAX?$AA?$AA@		; `string'
PUBLIC	??_C@_1BK@LBGPFNN@?$AA0?$AA0?$AA0?$AA0?$AA0?$AA0?$AA0?$AA0?$AA0?$AA0?$AA0?$AA0?$AA?$AA@ ; `string'
PUBLIC	?GetMacByGetAdaptersAddresses@@YA_NAAV?$basic_string@_WU?$char_traits@_W@std@@V?$allocator@_W@2@@std@@@Z ; GetMacByGetAdaptersAddresses
PUBLIC	__$ArrayPad$
EXTRN	__imp__wsprintfW:PROC
EXTRN	__imp__rand:PROC
EXTRN	__imp__srand:PROC
EXTRN	__imp_??4?$basic_string@_WU?$char_traits@_W@std@@V?$allocator@_W@2@@std@@QAEAAV01@ABV01@@Z:PROC
EXTRN	__imp_??4?$basic_string@_WU?$char_traits@_W@std@@V?$allocator@_W@2@@std@@QAEAAV01@PB_W@Z:PROC
EXTRN	___CxxFrameHandler3:PROC
;	COMDAT ??_C@_15BHOFONJE@?$AA?$CF?$AAX?$AA?$AA@
; File f:\lvdun\trunk\code\greenshield\gspre\peeidhelper.h
CONST	SEGMENT
??_C@_15BHOFONJE@?$AA?$CF?$AAX?$AA?$AA@ DB '%', 00H, 'X', 00H, 00H, 00H ; `string'
CONST	ENDS
;	COMDAT ??_C@_1BK@LBGPFNN@?$AA0?$AA0?$AA0?$AA0?$AA0?$AA0?$AA0?$AA0?$AA0?$AA0?$AA0?$AA0?$AA?$AA@
CONST	SEGMENT
??_C@_1BK@LBGPFNN@?$AA0?$AA0?$AA0?$AA0?$AA0?$AA0?$AA0?$AA0?$AA0?$AA0?$AA0?$AA0?$AA?$AA@ DB '0'
	DB	00H, '0', 00H, '0', 00H, '0', 00H, '0', 00H, '0', 00H, '0', 00H
	DB	'0', 00H, '0', 00H, '0', 00H, '0', 00H, '0', 00H, 00H, 00H ; `string'
CONST	ENDS
;	COMDAT xdata$x
xdata$x	SEGMENT
__unwindtable$?GetPeerId_@@YAXAAV?$basic_string@_WU?$char_traits@_W@std@@V?$allocator@_W@2@@std@@@Z DD 0ffffffffH
	DD	FLAT:__unwindfunclet$?GetPeerId_@@YAXAAV?$basic_string@_WU?$char_traits@_W@std@@V?$allocator@_W@2@@std@@@Z$0
__ehfuncinfo$?GetPeerId_@@YAXAAV?$basic_string@_WU?$char_traits@_W@std@@V?$allocator@_W@2@@std@@@Z DD 019930522H
	DD	01H
	DD	FLAT:__unwindtable$?GetPeerId_@@YAXAAV?$basic_string@_WU?$char_traits@_W@std@@V?$allocator@_W@2@@std@@@Z
	DD	2 DUP(00H)
	DD	2 DUP(00H)
	DD	00H
	DD	01H
; Function compile flags: /Odtp /RTCsu /ZI
xdata$x	ENDS
;	COMDAT ?GetPeerId_@@YAXAAV?$basic_string@_WU?$char_traits@_W@std@@V?$allocator@_W@2@@std@@@Z
_TEXT	SEGMENT
$T144325 = -277						; size = 1
_szRam$50674 = -76					; size = 4
_i$50670 = -64						; size = 4
_wstrMAC$ = -52						; size = 32
__$ArrayPad$ = -16					; size = 4
__$EHRec$ = -12						; size = 12
_wstrPeerId$ = 8					; size = 4
?GetPeerId_@@YAXAAV?$basic_string@_WU?$char_traits@_W@std@@V?$allocator@_W@2@@std@@@Z PROC ; GetPeerId_, COMDAT

; 55   : {

  00000	55		 push	 ebp
  00001	8b ec		 mov	 ebp, esp
  00003	6a ff		 push	 -1
  00005	68 00 00 00 00	 push	 __ehhandler$?GetPeerId_@@YAXAAV?$basic_string@_WU?$char_traits@_W@std@@V?$allocator@_W@2@@std@@@Z
  0000a	64 a1 00 00 00
	00		 mov	 eax, DWORD PTR fs:0
  00010	50		 push	 eax
  00011	81 ec 10 01 00
	00		 sub	 esp, 272		; 00000110H
  00017	53		 push	 ebx
  00018	56		 push	 esi
  00019	57		 push	 edi
  0001a	8d bd e4 fe ff
	ff		 lea	 edi, DWORD PTR [ebp-284]
  00020	b9 44 00 00 00	 mov	 ecx, 68			; 00000044H
  00025	b8 cc cc cc cc	 mov	 eax, -858993460		; ccccccccH
  0002a	f3 ab		 rep stosd
  0002c	a1 00 00 00 00	 mov	 eax, DWORD PTR ___security_cookie
  00031	33 c5		 xor	 eax, ebp
  00033	89 45 f0	 mov	 DWORD PTR __$ArrayPad$[ebp], eax
  00036	50		 push	 eax
  00037	8d 45 f4	 lea	 eax, DWORD PTR __$EHRec$[ebp]
  0003a	64 a3 00 00 00
	00		 mov	 DWORD PTR fs:0, eax

; 56   : 	std::wstring wstrMAC;

  00040	6a 01		 push	 1
  00042	8d 8d eb fe ff
	ff		 lea	 ecx, DWORD PTR $T144325[ebp]
  00048	e8 00 00 00 00	 call	 ??0_Has_debug_it@?$basic_string@_WU?$char_traits@_W@std@@V?$allocator@_W@2@@std@@QAE@_N@Z ; std::basic_string<wchar_t,std::char_traits<wchar_t>,std::allocator<wchar_t> >::_Has_debug_it::_Has_debug_it
  0004d	8b f4		 mov	 esi, esp
  0004f	0f b6 00	 movzx	 eax, BYTE PTR [eax]
  00052	50		 push	 eax
  00053	8d 4d cc	 lea	 ecx, DWORD PTR _wstrMAC$[ebp]
  00056	ff 15 00 00 00
	00		 call	 DWORD PTR __imp_??0?$basic_string@_WU?$char_traits@_W@std@@V?$allocator@_W@2@@std@@QAE@U_Has_debug_it@01@@Z
  0005c	3b f4		 cmp	 esi, esp
  0005e	e8 00 00 00 00	 call	 __RTC_CheckEsp
  00063	c7 45 fc 00 00
	00 00		 mov	 DWORD PTR __$EHRec$[ebp+8], 0

; 57   : 	if (!GetMacByGetAdaptersAddresses(wstrMAC))

  0006a	8d 45 cc	 lea	 eax, DWORD PTR _wstrMAC$[ebp]
  0006d	50		 push	 eax
  0006e	e8 00 00 00 00	 call	 ?GetMacByGetAdaptersAddresses@@YA_NAAV?$basic_string@_WU?$char_traits@_W@std@@V?$allocator@_W@2@@std@@@Z ; GetMacByGetAdaptersAddresses
  00073	83 c4 04	 add	 esp, 4
  00076	0f b6 c8	 movzx	 ecx, al
  00079	85 c9		 test	 ecx, ecx
  0007b	75 17		 jne	 SHORT $LN4@GetPeerId_

; 58   : 	{
; 59   : 		wstrMAC = L"000000000000";

  0007d	8b f4		 mov	 esi, esp
  0007f	68 00 00 00 00	 push	 OFFSET ??_C@_1BK@LBGPFNN@?$AA0?$AA0?$AA0?$AA0?$AA0?$AA0?$AA0?$AA0?$AA0?$AA0?$AA0?$AA0?$AA?$AA@
  00084	8d 4d cc	 lea	 ecx, DWORD PTR _wstrMAC$[ebp]
  00087	ff 15 00 00 00
	00		 call	 DWORD PTR __imp_??4?$basic_string@_WU?$char_traits@_W@std@@V?$allocator@_W@2@@std@@QAEAAV01@PB_W@Z
  0008d	3b f4		 cmp	 esi, esp
  0008f	e8 00 00 00 00	 call	 __RTC_CheckEsp
$LN4@GetPeerId_:

; 60   : 	}
; 61   : 	wstrPeerId = wstrMAC;

  00094	8b f4		 mov	 esi, esp
  00096	8d 45 cc	 lea	 eax, DWORD PTR _wstrMAC$[ebp]
  00099	50		 push	 eax
  0009a	8b 4d 08	 mov	 ecx, DWORD PTR _wstrPeerId$[ebp]
  0009d	ff 15 00 00 00
	00		 call	 DWORD PTR __imp_??4?$basic_string@_WU?$char_traits@_W@std@@V?$allocator@_W@2@@std@@QAEAAV01@ABV01@@Z
  000a3	3b f4		 cmp	 esi, esp
  000a5	e8 00 00 00 00	 call	 __RTC_CheckEsp

; 62   : 	srand( (unsigned)time( NULL ) );

  000aa	6a 00		 push	 0
  000ac	e8 00 00 00 00	 call	 _time
  000b1	83 c4 04	 add	 esp, 4
  000b4	8b f4		 mov	 esi, esp
  000b6	50		 push	 eax
  000b7	ff 15 00 00 00
	00		 call	 DWORD PTR __imp__srand
  000bd	83 c4 04	 add	 esp, 4
  000c0	3b f4		 cmp	 esi, esp
  000c2	e8 00 00 00 00	 call	 __RTC_CheckEsp

; 63   : 	for(int i=0;i<4;i++)

  000c7	c7 45 c0 00 00
	00 00		 mov	 DWORD PTR _i$50670[ebp], 0
  000ce	eb 09		 jmp	 SHORT $LN3@GetPeerId_
$LN2@GetPeerId_:
  000d0	8b 45 c0	 mov	 eax, DWORD PTR _i$50670[ebp]
  000d3	83 c0 01	 add	 eax, 1
  000d6	89 45 c0	 mov	 DWORD PTR _i$50670[ebp], eax
$LN3@GetPeerId_:
  000d9	83 7d c0 04	 cmp	 DWORD PTR _i$50670[ebp], 4
  000dd	7d 61		 jge	 SHORT $LN1@GetPeerId_

; 64   : 	{
; 65   : 		wchar_t szRam[2] = {0};

  000df	33 c0		 xor	 eax, eax
  000e1	66 89 45 b4	 mov	 WORD PTR _szRam$50674[ebp], ax
  000e5	33 c0		 xor	 eax, eax
  000e7	66 89 45 b6	 mov	 WORD PTR _szRam$50674[ebp+2], ax

; 66   : 		wsprintf(szRam,L"%X", rand()%16);

  000eb	8b f4		 mov	 esi, esp
  000ed	ff 15 00 00 00
	00		 call	 DWORD PTR __imp__rand
  000f3	3b f4		 cmp	 esi, esp
  000f5	e8 00 00 00 00	 call	 __RTC_CheckEsp
  000fa	25 0f 00 00 80	 and	 eax, -2147483633	; 8000000fH
  000ff	79 05		 jns	 SHORT $LN13@GetPeerId_
  00101	48		 dec	 eax
  00102	83 c8 f0	 or	 eax, -16		; fffffff0H
  00105	40		 inc	 eax
$LN13@GetPeerId_:
  00106	8b f4		 mov	 esi, esp
  00108	50		 push	 eax
  00109	68 00 00 00 00	 push	 OFFSET ??_C@_15BHOFONJE@?$AA?$CF?$AAX?$AA?$AA@
  0010e	8d 45 b4	 lea	 eax, DWORD PTR _szRam$50674[ebp]
  00111	50		 push	 eax
  00112	ff 15 00 00 00
	00		 call	 DWORD PTR __imp__wsprintfW
  00118	83 c4 0c	 add	 esp, 12			; 0000000cH
  0011b	3b f4		 cmp	 esi, esp
  0011d	e8 00 00 00 00	 call	 __RTC_CheckEsp

; 67   : 		szRam[1]=L'\0';

  00122	33 c0		 xor	 eax, eax
  00124	66 89 45 b6	 mov	 WORD PTR _szRam$50674[ebp+2], ax

; 68   : 		wstrPeerId += szRam;

  00128	8b f4		 mov	 esi, esp
  0012a	8d 45 b4	 lea	 eax, DWORD PTR _szRam$50674[ebp]
  0012d	50		 push	 eax
  0012e	8b 4d 08	 mov	 ecx, DWORD PTR _wstrPeerId$[ebp]
  00131	ff 15 00 00 00
	00		 call	 DWORD PTR __imp_??Y?$basic_string@_WU?$char_traits@_W@std@@V?$allocator@_W@2@@std@@QAEAAV01@PB_W@Z
  00137	3b f4		 cmp	 esi, esp
  00139	e8 00 00 00 00	 call	 __RTC_CheckEsp

; 69   : 	}

  0013e	eb 90		 jmp	 SHORT $LN2@GetPeerId_
$LN1@GetPeerId_:

; 70   : 	return ;

  00140	c7 45 fc ff ff
	ff ff		 mov	 DWORD PTR __$EHRec$[ebp+8], -1
  00147	8b f4		 mov	 esi, esp
  00149	8d 4d cc	 lea	 ecx, DWORD PTR _wstrMAC$[ebp]
  0014c	ff 15 00 00 00
	00		 call	 DWORD PTR __imp_??1?$basic_string@_WU?$char_traits@_W@std@@V?$allocator@_W@2@@std@@QAE@XZ
  00152	3b f4		 cmp	 esi, esp
  00154	e8 00 00 00 00	 call	 __RTC_CheckEsp

; 71   : }

  00159	52		 push	 edx
  0015a	8b cd		 mov	 ecx, ebp
  0015c	50		 push	 eax
  0015d	8d 15 00 00 00
	00		 lea	 edx, DWORD PTR $LN12@GetPeerId_
  00163	e8 00 00 00 00	 call	 @_RTC_CheckStackVars@8
  00168	58		 pop	 eax
  00169	5a		 pop	 edx
  0016a	8b 4d f4	 mov	 ecx, DWORD PTR __$EHRec$[ebp]
  0016d	64 89 0d 00 00
	00 00		 mov	 DWORD PTR fs:0, ecx
  00174	59		 pop	 ecx
  00175	5f		 pop	 edi
  00176	5e		 pop	 esi
  00177	5b		 pop	 ebx
  00178	8b 4d f0	 mov	 ecx, DWORD PTR __$ArrayPad$[ebp]
  0017b	33 cd		 xor	 ecx, ebp
  0017d	e8 00 00 00 00	 call	 @__security_check_cookie@4
  00182	81 c4 1c 01 00
	00		 add	 esp, 284		; 0000011cH
  00188	3b ec		 cmp	 ebp, esp
  0018a	e8 00 00 00 00	 call	 __RTC_CheckEsp
  0018f	8b e5		 mov	 esp, ebp
  00191	5d		 pop	 ebp
  00192	c3		 ret	 0
  00193	90		 npad	 1
$LN12@GetPeerId_:
  00194	02 00 00 00	 DD	 2
  00198	00 00 00 00	 DD	 $LN11@GetPeerId_
$LN11@GetPeerId_:
  0019c	cc ff ff ff	 DD	 -52			; ffffffccH
  001a0	20 00 00 00	 DD	 32			; 00000020H
  001a4	00 00 00 00	 DD	 $LN8@GetPeerId_
  001a8	b4 ff ff ff	 DD	 -76			; ffffffb4H
  001ac	04 00 00 00	 DD	 4
  001b0	00 00 00 00	 DD	 $LN9@GetPeerId_
$LN9@GetPeerId_:
  001b4	73		 DB	 115			; 00000073H
  001b5	7a		 DB	 122			; 0000007aH
  001b6	52		 DB	 82			; 00000052H
  001b7	61		 DB	 97			; 00000061H
  001b8	6d		 DB	 109			; 0000006dH
  001b9	00		 DB	 0
$LN8@GetPeerId_:
  001ba	77		 DB	 119			; 00000077H
  001bb	73		 DB	 115			; 00000073H
  001bc	74		 DB	 116			; 00000074H
  001bd	72		 DB	 114			; 00000072H
  001be	4d		 DB	 77			; 0000004dH
  001bf	41		 DB	 65			; 00000041H
  001c0	43		 DB	 67			; 00000043H
  001c1	00		 DB	 0
_TEXT	ENDS
;	COMDAT text$x
text$x	SEGMENT
__unwindfunclet$?GetPeerId_@@YAXAAV?$basic_string@_WU?$char_traits@_W@std@@V?$allocator@_W@2@@std@@@Z$0:
  00000	8b f4		 mov	 esi, esp
  00002	8d 4d cc	 lea	 ecx, DWORD PTR _wstrMAC$[ebp]
  00005	ff 15 00 00 00
	00		 call	 DWORD PTR __imp_??1?$basic_string@_WU?$char_traits@_W@std@@V?$allocator@_W@2@@std@@QAE@XZ
  0000b	3b f4		 cmp	 esi, esp
  0000d	e9 00 00 00 00	 jmp	 __RTC_CheckEsp
__ehhandler$?GetPeerId_@@YAXAAV?$basic_string@_WU?$char_traits@_W@std@@V?$allocator@_W@2@@std@@@Z:
  00012	8b 54 24 08	 mov	 edx, DWORD PTR [esp+8]
  00016	8d 42 0c	 lea	 eax, DWORD PTR [edx+12]
  00019	8b 8a e0 fe ff
	ff		 mov	 ecx, DWORD PTR [edx-288]
  0001f	33 c8		 xor	 ecx, eax
  00021	e8 00 00 00 00	 call	 @__security_check_cookie@4
  00026	8b 4a fc	 mov	 ecx, DWORD PTR [edx-4]
  00029	33 c8		 xor	 ecx, eax
  0002b	e8 00 00 00 00	 call	 @__security_check_cookie@4
  00030	b8 00 00 00 00	 mov	 eax, OFFSET __ehfuncinfo$?GetPeerId_@@YAXAAV?$basic_string@_WU?$char_traits@_W@std@@V?$allocator@_W@2@@std@@@Z
  00035	e9 00 00 00 00	 jmp	 ___CxxFrameHandler3
text$x	ENDS
?GetPeerId_@@YAXAAV?$basic_string@_WU?$char_traits@_W@std@@V?$allocator@_W@2@@std@@@Z ENDP ; GetPeerId_
EXTRN	__imp___time64:PROC
; Function compile flags: /Odtp /RTCsu /ZI
; File c:\program files (x86)\microsoft visual studio 9.0\vc\include\time.inl
;	COMDAT _time
_TEXT	SEGMENT
__Time$ = 8						; size = 4
_time	PROC						; COMDAT

; 134  : {

  00000	55		 push	 ebp
  00001	8b ec		 mov	 ebp, esp
  00003	81 ec c0 00 00
	00		 sub	 esp, 192		; 000000c0H
  00009	53		 push	 ebx
  0000a	56		 push	 esi
  0000b	57		 push	 edi
  0000c	8d bd 40 ff ff
	ff		 lea	 edi, DWORD PTR [ebp-192]
  00012	b9 30 00 00 00	 mov	 ecx, 48			; 00000030H
  00017	b8 cc cc cc cc	 mov	 eax, -858993460		; ccccccccH
  0001c	f3 ab		 rep stosd

; 135  :     return _time64(_Time);

  0001e	8b f4		 mov	 esi, esp
  00020	8b 45 08	 mov	 eax, DWORD PTR __Time$[ebp]
  00023	50		 push	 eax
  00024	ff 15 00 00 00
	00		 call	 DWORD PTR __imp___time64
  0002a	83 c4 04	 add	 esp, 4
  0002d	3b f4		 cmp	 esi, esp
  0002f	e8 00 00 00 00	 call	 __RTC_CheckEsp

; 136  : }

  00034	5f		 pop	 edi
  00035	5e		 pop	 esi
  00036	5b		 pop	 ebx
  00037	81 c4 c0 00 00
	00		 add	 esp, 192		; 000000c0H
  0003d	3b ec		 cmp	 ebp, esp
  0003f	e8 00 00 00 00	 call	 __RTC_CheckEsp
  00044	8b e5		 mov	 esp, ebp
  00046	5d		 pop	 ebp
  00047	c3		 ret	 0
_time	ENDP
_TEXT	ENDS
PUBLIC	??_C@_1DC@PLONAMAJ@?$AA?$CF?$AA0?$AA2?$AAX?$AA?$CF?$AA0?$AA2?$AAX?$AA?$CF?$AA0?$AA2?$AAX?$AA?$CF?$AA0?$AA2?$AAX?$AA?$CF?$AA0?$AA2?$AAX?$AA?$CF?$AA0?$AA2?$AAX?$AA?$AA@ ; `string'
PUBLIC	__$ArrayPad$
EXTRN	__imp__free:PROC
EXTRN	_GetAdaptersAddresses@20:PROC
EXTRN	__imp__malloc:PROC
;	COMDAT ??_C@_1DC@PLONAMAJ@?$AA?$CF?$AA0?$AA2?$AAX?$AA?$CF?$AA0?$AA2?$AAX?$AA?$CF?$AA0?$AA2?$AAX?$AA?$CF?$AA0?$AA2?$AAX?$AA?$CF?$AA0?$AA2?$AAX?$AA?$CF?$AA0?$AA2?$AAX?$AA?$AA@
; File f:\lvdun\trunk\code\greenshield\gspre\peeidhelper.h
CONST	SEGMENT
??_C@_1DC@PLONAMAJ@?$AA?$CF?$AA0?$AA2?$AAX?$AA?$CF?$AA0?$AA2?$AAX?$AA?$CF?$AA0?$AA2?$AAX?$AA?$CF?$AA0?$AA2?$AAX?$AA?$CF?$AA0?$AA2?$AAX?$AA?$CF?$AA0?$AA2?$AAX?$AA?$AA@ DB '%'
	DB	00H, '0', 00H, '2', 00H, 'X', 00H, '%', 00H, '0', 00H, '2', 00H
	DB	'X', 00H, '%', 00H, '0', 00H, '2', 00H, 'X', 00H, '%', 00H, '0'
	DB	00H, '2', 00H, 'X', 00H, '%', 00H, '0', 00H, '2', 00H, 'X', 00H
	DB	'%', 00H, '0', 00H, '2', 00H, 'X', 00H, 00H, 00H ; `string'
; Function compile flags: /Odtp /RTCsu /ZI
CONST	ENDS
;	COMDAT ?GetMacByGetAdaptersAddresses@@YA_NAAV?$basic_string@_WU?$char_traits@_W@std@@V?$allocator@_W@2@@std@@@Z
_TEXT	SEGMENT
_acMAC$50651 = -120					; size = 64
_pCurrAddresses$50646 = -48				; size = 4
_pAddresses$ = -36					; size = 4
_outBufLen$ = -24					; size = 4
_ret$ = -9						; size = 1
__$ArrayPad$ = -4					; size = 4
_macOUT$ = 8						; size = 4
?GetMacByGetAdaptersAddresses@@YA_NAAV?$basic_string@_WU?$char_traits@_W@std@@V?$allocator@_W@2@@std@@@Z PROC ; GetMacByGetAdaptersAddresses, COMDAT

; 11   : {

  00000	55		 push	 ebp
  00001	8b ec		 mov	 ebp, esp
  00003	81 ec 3c 01 00
	00		 sub	 esp, 316		; 0000013cH
  00009	53		 push	 ebx
  0000a	56		 push	 esi
  0000b	57		 push	 edi
  0000c	8d bd c4 fe ff
	ff		 lea	 edi, DWORD PTR [ebp-316]
  00012	b9 4f 00 00 00	 mov	 ecx, 79			; 0000004fH
  00017	b8 cc cc cc cc	 mov	 eax, -858993460		; ccccccccH
  0001c	f3 ab		 rep stosd
  0001e	a1 00 00 00 00	 mov	 eax, DWORD PTR ___security_cookie
  00023	33 c5		 xor	 eax, ebp
  00025	89 45 fc	 mov	 DWORD PTR __$ArrayPad$[ebp], eax

; 12   : 	bool ret = false;

  00028	c6 45 f7 00	 mov	 BYTE PTR _ret$[ebp], 0

; 13   : 
; 14   : 	ULONG outBufLen = sizeof(IP_ADAPTER_ADDRESSES);

  0002c	c7 45 e8 70 01
	00 00		 mov	 DWORD PTR _outBufLen$[ebp], 368 ; 00000170H

; 15   : 	PIP_ADAPTER_ADDRESSES pAddresses = (IP_ADAPTER_ADDRESSES*)malloc(outBufLen);

  00033	8b f4		 mov	 esi, esp
  00035	8b 45 e8	 mov	 eax, DWORD PTR _outBufLen$[ebp]
  00038	50		 push	 eax
  00039	ff 15 00 00 00
	00		 call	 DWORD PTR __imp__malloc
  0003f	83 c4 04	 add	 esp, 4
  00042	3b f4		 cmp	 esi, esp
  00044	e8 00 00 00 00	 call	 __RTC_CheckEsp
  00049	89 45 dc	 mov	 DWORD PTR _pAddresses$[ebp], eax

; 16   : 	if (pAddresses == NULL) 

  0004c	83 7d dc 00	 cmp	 DWORD PTR _pAddresses$[ebp], 0
  00050	75 07		 jne	 SHORT $LN8@GetMacByGe

; 17   : 		return false;

  00052	32 c0		 xor	 al, al
  00054	e9 16 01 00 00	 jmp	 $LN9@GetMacByGe
$LN8@GetMacByGe:

; 18   : 	// Make an initial call to GetAdaptersAddresses to get the necessary size into the ulOutBufLen variable
; 19   : 	if(GetAdaptersAddresses(AF_UNSPEC, 0, NULL, pAddresses, &outBufLen) == ERROR_BUFFER_OVERFLOW)

  00059	8d 45 e8	 lea	 eax, DWORD PTR _outBufLen$[ebp]
  0005c	50		 push	 eax
  0005d	8b 4d dc	 mov	 ecx, DWORD PTR _pAddresses$[ebp]
  00060	51		 push	 ecx
  00061	6a 00		 push	 0
  00063	6a 00		 push	 0
  00065	6a 00		 push	 0
  00067	e8 00 00 00 00	 call	 _GetAdaptersAddresses@20
  0006c	83 f8 6f	 cmp	 eax, 111		; 0000006fH
  0006f	75 3c		 jne	 SHORT $LN7@GetMacByGe

; 20   : 	{
; 21   : 		free(pAddresses);

  00071	8b f4		 mov	 esi, esp
  00073	8b 45 dc	 mov	 eax, DWORD PTR _pAddresses$[ebp]
  00076	50		 push	 eax
  00077	ff 15 00 00 00
	00		 call	 DWORD PTR __imp__free
  0007d	83 c4 04	 add	 esp, 4
  00080	3b f4		 cmp	 esi, esp
  00082	e8 00 00 00 00	 call	 __RTC_CheckEsp

; 22   : 		pAddresses = (IP_ADAPTER_ADDRESSES*)malloc(outBufLen);

  00087	8b f4		 mov	 esi, esp
  00089	8b 45 e8	 mov	 eax, DWORD PTR _outBufLen$[ebp]
  0008c	50		 push	 eax
  0008d	ff 15 00 00 00
	00		 call	 DWORD PTR __imp__malloc
  00093	83 c4 04	 add	 esp, 4
  00096	3b f4		 cmp	 esi, esp
  00098	e8 00 00 00 00	 call	 __RTC_CheckEsp
  0009d	89 45 dc	 mov	 DWORD PTR _pAddresses$[ebp], eax

; 23   : 		if (pAddresses == NULL) 

  000a0	83 7d dc 00	 cmp	 DWORD PTR _pAddresses$[ebp], 0
  000a4	75 07		 jne	 SHORT $LN7@GetMacByGe

; 24   : 			return false;

  000a6	32 c0		 xor	 al, al
  000a8	e9 c2 00 00 00	 jmp	 $LN9@GetMacByGe
$LN7@GetMacByGe:

; 25   : 	}
; 26   : 
; 27   : 	if(GetAdaptersAddresses(AF_UNSPEC, 0, NULL, pAddresses, &outBufLen) == NO_ERROR)

  000ad	8d 45 e8	 lea	 eax, DWORD PTR _outBufLen$[ebp]
  000b0	50		 push	 eax
  000b1	8b 4d dc	 mov	 ecx, DWORD PTR _pAddresses$[ebp]
  000b4	51		 push	 ecx
  000b5	6a 00		 push	 0
  000b7	6a 00		 push	 0
  000b9	6a 00		 push	 0
  000bb	e8 00 00 00 00	 call	 _GetAdaptersAddresses@20
  000c0	85 c0		 test	 eax, eax
  000c2	0f 85 8e 00 00
	00		 jne	 $LN5@GetMacByGe

; 28   : 	{
; 29   : 		// If successful, output some information from the data we received
; 30   : 		for(PIP_ADAPTER_ADDRESSES pCurrAddresses = pAddresses; pCurrAddresses != NULL; pCurrAddresses = pCurrAddresses->Next)

  000c8	8b 45 dc	 mov	 eax, DWORD PTR _pAddresses$[ebp]
  000cb	89 45 d0	 mov	 DWORD PTR _pCurrAddresses$50646[ebp], eax
  000ce	eb 09		 jmp	 SHORT $LN4@GetMacByGe
$LN3@GetMacByGe:
  000d0	8b 45 d0	 mov	 eax, DWORD PTR _pCurrAddresses$50646[ebp]
  000d3	8b 48 08	 mov	 ecx, DWORD PTR [eax+8]
  000d6	89 4d d0	 mov	 DWORD PTR _pCurrAddresses$50646[ebp], ecx
$LN4@GetMacByGe:
  000d9	83 7d d0 00	 cmp	 DWORD PTR _pCurrAddresses$50646[ebp], 0
  000dd	74 77		 je	 SHORT $LN5@GetMacByGe

; 31   : 		{
; 32   : 			// MAC 00-00-00-00-00-00
; 33   : 			if(pCurrAddresses->PhysicalAddressLength != 6)

  000df	8b 45 d0	 mov	 eax, DWORD PTR _pCurrAddresses$50646[ebp]
  000e2	83 78 34 06	 cmp	 DWORD PTR [eax+52], 6
  000e6	74 02		 je	 SHORT $LN1@GetMacByGe

; 34   : 				continue;

  000e8	eb e6		 jmp	 SHORT $LN3@GetMacByGe
$LN1@GetMacByGe:

; 35   : 			wchar_t acMAC[32];
; 36   : 			wsprintf(acMAC, L"%02X%02X%02X%02X%02X%02X",
; 37   : 				int (pCurrAddresses->PhysicalAddress[0]),
; 38   : 				int (pCurrAddresses->PhysicalAddress[1]),
; 39   : 				int (pCurrAddresses->PhysicalAddress[2]),
; 40   : 				int (pCurrAddresses->PhysicalAddress[3]),
; 41   : 				int (pCurrAddresses->PhysicalAddress[4]),
; 42   : 				int (pCurrAddresses->PhysicalAddress[5]));

  000ea	8b 45 d0	 mov	 eax, DWORD PTR _pCurrAddresses$50646[ebp]
  000ed	0f b6 48 31	 movzx	 ecx, BYTE PTR [eax+49]
  000f1	8b f4		 mov	 esi, esp
  000f3	51		 push	 ecx
  000f4	8b 55 d0	 mov	 edx, DWORD PTR _pCurrAddresses$50646[ebp]
  000f7	0f b6 42 30	 movzx	 eax, BYTE PTR [edx+48]
  000fb	50		 push	 eax
  000fc	8b 4d d0	 mov	 ecx, DWORD PTR _pCurrAddresses$50646[ebp]
  000ff	0f b6 51 2f	 movzx	 edx, BYTE PTR [ecx+47]
  00103	52		 push	 edx
  00104	8b 45 d0	 mov	 eax, DWORD PTR _pCurrAddresses$50646[ebp]
  00107	0f b6 48 2e	 movzx	 ecx, BYTE PTR [eax+46]
  0010b	51		 push	 ecx
  0010c	8b 55 d0	 mov	 edx, DWORD PTR _pCurrAddresses$50646[ebp]
  0010f	0f b6 42 2d	 movzx	 eax, BYTE PTR [edx+45]
  00113	50		 push	 eax
  00114	8b 4d d0	 mov	 ecx, DWORD PTR _pCurrAddresses$50646[ebp]
  00117	0f b6 51 2c	 movzx	 edx, BYTE PTR [ecx+44]
  0011b	52		 push	 edx
  0011c	68 00 00 00 00	 push	 OFFSET ??_C@_1DC@PLONAMAJ@?$AA?$CF?$AA0?$AA2?$AAX?$AA?$CF?$AA0?$AA2?$AAX?$AA?$CF?$AA0?$AA2?$AAX?$AA?$CF?$AA0?$AA2?$AAX?$AA?$CF?$AA0?$AA2?$AAX?$AA?$CF?$AA0?$AA2?$AAX?$AA?$AA@
  00121	8d 45 88	 lea	 eax, DWORD PTR _acMAC$50651[ebp]
  00124	50		 push	 eax
  00125	ff 15 00 00 00
	00		 call	 DWORD PTR __imp__wsprintfW
  0012b	83 c4 20	 add	 esp, 32			; 00000020H
  0012e	3b f4		 cmp	 esi, esp
  00130	e8 00 00 00 00	 call	 __RTC_CheckEsp

; 43   : 			macOUT = acMAC;

  00135	8b f4		 mov	 esi, esp
  00137	8d 45 88	 lea	 eax, DWORD PTR _acMAC$50651[ebp]
  0013a	50		 push	 eax
  0013b	8b 4d 08	 mov	 ecx, DWORD PTR _macOUT$[ebp]
  0013e	ff 15 00 00 00
	00		 call	 DWORD PTR __imp_??4?$basic_string@_WU?$char_traits@_W@std@@V?$allocator@_W@2@@std@@QAEAAV01@PB_W@Z
  00144	3b f4		 cmp	 esi, esp
  00146	e8 00 00 00 00	 call	 __RTC_CheckEsp

; 44   : 			ret = true;

  0014b	c6 45 f7 01	 mov	 BYTE PTR _ret$[ebp], 1

; 45   : 			break;

  0014f	eb 05		 jmp	 SHORT $LN5@GetMacByGe

; 46   : 		}

  00151	e9 7a ff ff ff	 jmp	 $LN3@GetMacByGe
$LN5@GetMacByGe:

; 47   : 	} 
; 48   : 
; 49   : 	free(pAddresses);

  00156	8b f4		 mov	 esi, esp
  00158	8b 45 dc	 mov	 eax, DWORD PTR _pAddresses$[ebp]
  0015b	50		 push	 eax
  0015c	ff 15 00 00 00
	00		 call	 DWORD PTR __imp__free
  00162	83 c4 04	 add	 esp, 4
  00165	3b f4		 cmp	 esi, esp
  00167	e8 00 00 00 00	 call	 __RTC_CheckEsp

; 50   : 	return ret;

  0016c	8a 45 f7	 mov	 al, BYTE PTR _ret$[ebp]
$LN9@GetMacByGe:

; 51   : }

  0016f	52		 push	 edx
  00170	8b cd		 mov	 ecx, ebp
  00172	50		 push	 eax
  00173	8d 15 00 00 00
	00		 lea	 edx, DWORD PTR $LN14@GetMacByGe
  00179	e8 00 00 00 00	 call	 @_RTC_CheckStackVars@8
  0017e	58		 pop	 eax
  0017f	5a		 pop	 edx
  00180	5f		 pop	 edi
  00181	5e		 pop	 esi
  00182	5b		 pop	 ebx
  00183	8b 4d fc	 mov	 ecx, DWORD PTR __$ArrayPad$[ebp]
  00186	33 cd		 xor	 ecx, ebp
  00188	e8 00 00 00 00	 call	 @__security_check_cookie@4
  0018d	81 c4 3c 01 00
	00		 add	 esp, 316		; 0000013cH
  00193	3b ec		 cmp	 ebp, esp
  00195	e8 00 00 00 00	 call	 __RTC_CheckEsp
  0019a	8b e5		 mov	 esp, ebp
  0019c	5d		 pop	 ebp
  0019d	c3		 ret	 0
  0019e	8b ff		 npad	 2
$LN14@GetMacByGe:
  001a0	02 00 00 00	 DD	 2
  001a4	00 00 00 00	 DD	 $LN13@GetMacByGe
$LN13@GetMacByGe:
  001a8	e8 ff ff ff	 DD	 -24			; ffffffe8H
  001ac	04 00 00 00	 DD	 4
  001b0	00 00 00 00	 DD	 $LN11@GetMacByGe
  001b4	88 ff ff ff	 DD	 -120			; ffffff88H
  001b8	40 00 00 00	 DD	 64			; 00000040H
  001bc	00 00 00 00	 DD	 $LN12@GetMacByGe
$LN12@GetMacByGe:
  001c0	61		 DB	 97			; 00000061H
  001c1	63		 DB	 99			; 00000063H
  001c2	4d		 DB	 77			; 0000004dH
  001c3	41		 DB	 65			; 00000041H
  001c4	43		 DB	 67			; 00000043H
  001c5	00		 DB	 0
$LN11@GetMacByGe:
  001c6	6f		 DB	 111			; 0000006fH
  001c7	75		 DB	 117			; 00000075H
  001c8	74		 DB	 116			; 00000074H
  001c9	42		 DB	 66			; 00000042H
  001ca	75		 DB	 117			; 00000075H
  001cb	66		 DB	 102			; 00000066H
  001cc	4c		 DB	 76			; 0000004cH
  001cd	65		 DB	 101			; 00000065H
  001ce	6e		 DB	 110			; 0000006eH
  001cf	00		 DB	 0
?GetMacByGetAdaptersAddresses@@YA_NAAV?$basic_string@_WU?$char_traits@_W@std@@V?$allocator@_W@2@@std@@@Z ENDP ; GetMacByGetAdaptersAddresses
_TEXT	ENDS
PUBLIC	?AtlThrowImpl@ATL@@YGXJ@Z			; ATL::AtlThrowImpl
PUBLIC	??7CComBSTR@ATL@@QBE_NXZ			; ATL::CComBSTR::operator!
EXTRN	__imp__SysAllocString@4:PROC
; Function compile flags: /Odtp /RTCsu /ZI
; File c:\program files (x86)\microsoft visual studio 9.0\vc\atlmfc\include\atlcomcli.h
;	COMDAT ??0CComBSTR@ATL@@QAE@PB_W@Z
_TEXT	SEGMENT
_this$ = -8						; size = 4
_pSrc$ = 8						; size = 4
??0CComBSTR@ATL@@QAE@PB_W@Z PROC			; ATL::CComBSTR::CComBSTR, COMDAT
; _this$ = ecx

; 608  : 	CComBSTR(_In_opt_ LPCOLESTR pSrc)

  00000	55		 push	 ebp
  00001	8b ec		 mov	 ebp, esp
  00003	81 ec cc 00 00
	00		 sub	 esp, 204		; 000000ccH
  00009	53		 push	 ebx
  0000a	56		 push	 esi
  0000b	57		 push	 edi
  0000c	51		 push	 ecx
  0000d	8d bd 34 ff ff
	ff		 lea	 edi, DWORD PTR [ebp-204]
  00013	b9 33 00 00 00	 mov	 ecx, 51			; 00000033H
  00018	b8 cc cc cc cc	 mov	 eax, -858993460		; ccccccccH
  0001d	f3 ab		 rep stosd
  0001f	59		 pop	 ecx
  00020	89 4d f8	 mov	 DWORD PTR _this$[ebp], ecx

; 609  : 	{
; 610  : 		if (pSrc == NULL)

  00023	83 7d 08 00	 cmp	 DWORD PTR _pSrc$[ebp], 0
  00027	75 0b		 jne	 SHORT $LN3@CComBSTR

; 611  :         {
; 612  : 			m_str = NULL;

  00029	8b 45 f8	 mov	 eax, DWORD PTR _this$[ebp]
  0002c	c7 00 00 00 00
	00		 mov	 DWORD PTR [eax], 0

; 613  :         }
; 614  : 		else

  00032	eb 31		 jmp	 SHORT $LN4@CComBSTR
$LN3@CComBSTR:

; 615  : 		{
; 616  : 			m_str = ::SysAllocString(pSrc);

  00034	8b f4		 mov	 esi, esp
  00036	8b 45 08	 mov	 eax, DWORD PTR _pSrc$[ebp]
  00039	50		 push	 eax
  0003a	ff 15 00 00 00
	00		 call	 DWORD PTR __imp__SysAllocString@4
  00040	3b f4		 cmp	 esi, esp
  00042	e8 00 00 00 00	 call	 __RTC_CheckEsp
  00047	8b 4d f8	 mov	 ecx, DWORD PTR _this$[ebp]
  0004a	89 01		 mov	 DWORD PTR [ecx], eax

; 617  : 			if (!*this)

  0004c	8b 4d f8	 mov	 ecx, DWORD PTR _this$[ebp]
  0004f	e8 00 00 00 00	 call	 ??7CComBSTR@ATL@@QBE_NXZ ; ATL::CComBSTR::operator!
  00054	0f b6 c0	 movzx	 eax, al
  00057	85 c0		 test	 eax, eax
  00059	74 0a		 je	 SHORT $LN4@CComBSTR

; 618  :             {
; 619  : 				AtlThrow(E_OUTOFMEMORY);

  0005b	68 0e 00 07 80	 push	 -2147024882		; 8007000eH
  00060	e8 00 00 00 00	 call	 ?AtlThrowImpl@ATL@@YGXJ@Z ; ATL::AtlThrowImpl
$LN4@CComBSTR:

; 620  :             }
; 621  : 		}
; 622  : 	}

  00065	8b 45 f8	 mov	 eax, DWORD PTR _this$[ebp]
$LN5@CComBSTR:
  00068	5f		 pop	 edi
  00069	5e		 pop	 esi
  0006a	5b		 pop	 ebx
  0006b	81 c4 cc 00 00
	00		 add	 esp, 204		; 000000ccH
  00071	3b ec		 cmp	 ebp, esp
  00073	e8 00 00 00 00	 call	 __RTC_CheckEsp
  00078	8b e5		 mov	 esp, ebp
  0007a	5d		 pop	 ebp
  0007b	c2 04 00	 ret	 4
??0CComBSTR@ATL@@QAE@PB_W@Z ENDP			; ATL::CComBSTR::CComBSTR
_TEXT	ENDS
PUBLIC	__TI1?AVCAtlException@ATL@@
PUBLIC	??0CAtlException@ATL@@QAE@J@Z			; ATL::CAtlException::CAtlException
PUBLIC	??RCTraceFileAndLineInfo@ATL@@QBAXKIPB_WZZ	; ATL::CTraceFileAndLineInfo::operator()
PUBLIC	??0CTraceFileAndLineInfo@ATL@@QAE@PBDH@Z	; ATL::CTraceFileAndLineInfo::CTraceFileAndLineInfo
PUBLIC	??_C@_0FB@LDPMGGOI@c?3?2program?5files?5?$CIx86?$CJ?2microsoft@ ; `string'
PUBLIC	?__LINE__Var@?1??AtlThrowImpl@ATL@@YGXJ@Z@4JA	; `ATL::AtlThrowImpl'::`2'::__LINE__Var
PUBLIC	??BCTraceCategory@ATL@@QBEKXZ			; ATL::CTraceCategory::operator unsigned long
PUBLIC	??_C@_1CK@DFMKPFAK@?$AAA?$AAt?$AAl?$AAT?$AAh?$AAr?$AAo?$AAw?$AA?3?$AA?5?$AAh?$AAr?$AA?5?$AA?$DN?$AA?5?$AA0?$AAx?$AA?$CF?$AAx?$AA?6?$AA?$AA@ ; `string'
PUBLIC	__CTA1?AVCAtlException@ATL@@
PUBLIC	__CT??_R0?AVCAtlException@ATL@@@84
PUBLIC	??_R0?AVCAtlException@ATL@@@8			; ATL::CAtlException `RTTI Type Descriptor'
EXTRN	?atlTraceException@ATL@@3VCTraceCategory@1@A:DWORD ; ATL::atlTraceException
EXTRN	__CxxThrowException@8:PROC
EXTRN	??_7type_info@@6B@:QWORD			; type_info::`vftable'
;	COMDAT ??_R0?AVCAtlException@ATL@@@8
; File c:\program files (x86)\microsoft visual studio 9.0\vc\atlmfc\include\atlexcept.h
_DATA	SEGMENT
??_R0?AVCAtlException@ATL@@@8 DD FLAT:??_7type_info@@6B@ ; ATL::CAtlException `RTTI Type Descriptor'
	DD	00H
	DB	'.?AVCAtlException@ATL@@', 00H
_DATA	ENDS
;	COMDAT __CT??_R0?AVCAtlException@ATL@@@84
xdata$x	SEGMENT
__CT??_R0?AVCAtlException@ATL@@@84 DD 00H
	DD	FLAT:??_R0?AVCAtlException@ATL@@@8
	DD	00H
	DD	0ffffffffH
	ORG $+4
	DD	04H
	DD	00H
xdata$x	ENDS
;	COMDAT __CTA1?AVCAtlException@ATL@@
xdata$x	SEGMENT
__CTA1?AVCAtlException@ATL@@ DD 01H
	DD	FLAT:__CT??_R0?AVCAtlException@ATL@@@84
xdata$x	ENDS
;	COMDAT __TI1?AVCAtlException@ATL@@
xdata$x	SEGMENT
__TI1?AVCAtlException@ATL@@ DD 00H
	DD	00H
	DD	00H
	DD	FLAT:__CTA1?AVCAtlException@ATL@@
xdata$x	ENDS
;	COMDAT ??_C@_0FB@LDPMGGOI@c?3?2program?5files?5?$CIx86?$CJ?2microsoft@
CONST	SEGMENT
??_C@_0FB@LDPMGGOI@c?3?2program?5files?5?$CIx86?$CJ?2microsoft@ DB 'c:\pr'
	DB	'ogram files (x86)\microsoft visual studio 9.0\vc\atlmfc\inclu'
	DB	'de\atlexcept.h', 00H			; `string'
CONST	ENDS
;	COMDAT ?__LINE__Var@?1??AtlThrowImpl@ATL@@YGXJ@Z@4JA
_DATA	SEGMENT
?__LINE__Var@?1??AtlThrowImpl@ATL@@YGXJ@Z@4JA DD 03fH	; `ATL::AtlThrowImpl'::`2'::__LINE__Var
_DATA	ENDS
;	COMDAT ??_C@_1CK@DFMKPFAK@?$AAA?$AAt?$AAl?$AAT?$AAh?$AAr?$AAo?$AAw?$AA?3?$AA?5?$AAh?$AAr?$AA?5?$AA?$DN?$AA?5?$AA0?$AAx?$AA?$CF?$AAx?$AA?6?$AA?$AA@
CONST	SEGMENT
??_C@_1CK@DFMKPFAK@?$AAA?$AAt?$AAl?$AAT?$AAh?$AAr?$AAo?$AAw?$AA?3?$AA?5?$AAh?$AAr?$AA?5?$AA?$DN?$AA?5?$AA0?$AAx?$AA?$CF?$AAx?$AA?6?$AA?$AA@ DB 'A'
	DB	00H, 't', 00H, 'l', 00H, 'T', 00H, 'h', 00H, 'r', 00H, 'o', 00H
	DB	'w', 00H, ':', 00H, ' ', 00H, 'h', 00H, 'r', 00H, ' ', 00H, '='
	DB	00H, ' ', 00H, '0', 00H, 'x', 00H, '%', 00H, 'x', 00H, 0aH, 00H
	DB	00H, 00H					; `string'
; Function compile flags: /Odtp /RTCsu /ZI
CONST	ENDS
;	COMDAT ?AtlThrowImpl@ATL@@YGXJ@Z
_TEXT	SEGMENT
$T144353 = -228						; size = 8
$T144354 = -212						; size = 4
$T144355 = -200						; size = 4
_hr$ = 8						; size = 4
?AtlThrowImpl@ATL@@YGXJ@Z PROC				; ATL::AtlThrowImpl, COMDAT

; 63   : {

  00000	55		 push	 ebp
  00001	8b ec		 mov	 ebp, esp
  00003	81 ec e8 00 00
	00		 sub	 esp, 232		; 000000e8H
  00009	53		 push	 ebx
  0000a	56		 push	 esi
  0000b	57		 push	 edi
  0000c	8d bd 18 ff ff
	ff		 lea	 edi, DWORD PTR [ebp-232]
  00012	b9 3a 00 00 00	 mov	 ecx, 58			; 0000003aH
  00017	b8 cc cc cc cc	 mov	 eax, -858993460		; ccccccccH
  0001c	f3 ab		 rep stosd

; 64   : 	ATLTRACE(atlTraceException, 0, _T("AtlThrow: hr = 0x%x\n"), hr );

  0001e	8b 45 08	 mov	 eax, DWORD PTR _hr$[ebp]
  00021	50		 push	 eax
  00022	68 00 00 00 00	 push	 OFFSET ??_C@_1CK@DFMKPFAK@?$AAA?$AAt?$AAl?$AAT?$AAh?$AAr?$AAo?$AAw?$AA?3?$AA?5?$AAh?$AAr?$AA?5?$AA?$DN?$AA?5?$AA0?$AAx?$AA?$CF?$AAx?$AA?6?$AA?$AA@
  00027	6a 00		 push	 0
  00029	b9 00 00 00 00	 mov	 ecx, OFFSET ?atlTraceException@ATL@@3VCTraceCategory@1@A ; ATL::atlTraceException
  0002e	e8 00 00 00 00	 call	 ??BCTraceCategory@ATL@@QBEKXZ ; ATL::CTraceCategory::operator unsigned long
  00033	50		 push	 eax
  00034	8b 0d 00 00 00
	00		 mov	 ecx, DWORD PTR ?__LINE__Var@?1??AtlThrowImpl@ATL@@YGXJ@Z@4JA
  0003a	83 c1 01	 add	 ecx, 1
  0003d	51		 push	 ecx
  0003e	68 00 00 00 00	 push	 OFFSET ??_C@_0FB@LDPMGGOI@c?3?2program?5files?5?$CIx86?$CJ?2microsoft@
  00043	8d 8d 1c ff ff
	ff		 lea	 ecx, DWORD PTR $T144353[ebp]
  00049	e8 00 00 00 00	 call	 ??0CTraceFileAndLineInfo@ATL@@QAE@PBDH@Z ; ATL::CTraceFileAndLineInfo::CTraceFileAndLineInfo
  0004e	50		 push	 eax
  0004f	e8 00 00 00 00	 call	 ??RCTraceFileAndLineInfo@ATL@@QBAXKIPB_WZZ ; ATL::CTraceFileAndLineInfo::operator()
  00054	83 c4 14	 add	 esp, 20			; 00000014H

; 65   : #ifdef _AFX
; 66   : 	if( hr == E_OUTOFMEMORY )
; 67   : 	{
; 68   : 		AfxThrowMemoryException();
; 69   : 	}
; 70   : 	else
; 71   : 	{
; 72   : 		AfxThrowOleException( hr );
; 73   : 	}
; 74   : #else
; 75   : 	throw CAtlException( hr );

  00057	8b 45 08	 mov	 eax, DWORD PTR _hr$[ebp]
  0005a	50		 push	 eax
  0005b	8d 8d 38 ff ff
	ff		 lea	 ecx, DWORD PTR $T144355[ebp]
  00061	e8 00 00 00 00	 call	 ??0CAtlException@ATL@@QAE@J@Z ; ATL::CAtlException::CAtlException
  00066	8b 08		 mov	 ecx, DWORD PTR [eax]
  00068	89 8d 2c ff ff
	ff		 mov	 DWORD PTR $T144354[ebp], ecx
  0006e	68 00 00 00 00	 push	 OFFSET __TI1?AVCAtlException@ATL@@
  00073	8d 95 2c ff ff
	ff		 lea	 edx, DWORD PTR $T144354[ebp]
  00079	52		 push	 edx
  0007a	e8 00 00 00 00	 call	 __CxxThrowException@8
$LN2@AtlThrowIm:

; 76   : #endif
; 77   : };

  0007f	5f		 pop	 edi
  00080	5e		 pop	 esi
  00081	5b		 pop	 ebx
  00082	81 c4 e8 00 00
	00		 add	 esp, 232		; 000000e8H
  00088	3b ec		 cmp	 ebp, esp
  0008a	e8 00 00 00 00	 call	 __RTC_CheckEsp
  0008f	8b e5		 mov	 esp, ebp
  00091	5d		 pop	 ebp
  00092	c2 04 00	 ret	 4
?AtlThrowImpl@ATL@@YGXJ@Z ENDP				; ATL::AtlThrowImpl
; Function compile flags: /Odtp /RTCsu /ZI
; File c:\program files (x86)\microsoft visual studio 9.0\vc\atlmfc\include\atltrace.h
_TEXT	ENDS
;	COMDAT ??0CTraceFileAndLineInfo@ATL@@QAE@PBDH@Z
_TEXT	SEGMENT
_this$ = -8						; size = 4
_pszFileName$ = 8					; size = 4
_nLineNo$ = 12						; size = 4
??0CTraceFileAndLineInfo@ATL@@QAE@PBDH@Z PROC		; ATL::CTraceFileAndLineInfo::CTraceFileAndLineInfo, COMDAT
; _this$ = ecx

; 171  : 	{}

  00000	55		 push	 ebp
  00001	8b ec		 mov	 ebp, esp
  00003	81 ec cc 00 00
	00		 sub	 esp, 204		; 000000ccH
  00009	53		 push	 ebx
  0000a	56		 push	 esi
  0000b	57		 push	 edi
  0000c	51		 push	 ecx
  0000d	8d bd 34 ff ff
	ff		 lea	 edi, DWORD PTR [ebp-204]
  00013	b9 33 00 00 00	 mov	 ecx, 51			; 00000033H
  00018	b8 cc cc cc cc	 mov	 eax, -858993460		; ccccccccH
  0001d	f3 ab		 rep stosd
  0001f	59		 pop	 ecx
  00020	89 4d f8	 mov	 DWORD PTR _this$[ebp], ecx
  00023	8b 45 f8	 mov	 eax, DWORD PTR _this$[ebp]
  00026	8b 4d 08	 mov	 ecx, DWORD PTR _pszFileName$[ebp]
  00029	89 08		 mov	 DWORD PTR [eax], ecx
  0002b	8b 45 f8	 mov	 eax, DWORD PTR _this$[ebp]
  0002e	8b 4d 0c	 mov	 ecx, DWORD PTR _nLineNo$[ebp]
  00031	89 48 04	 mov	 DWORD PTR [eax+4], ecx
  00034	8b 45 f8	 mov	 eax, DWORD PTR _this$[ebp]
  00037	5f		 pop	 edi
  00038	5e		 pop	 esi
  00039	5b		 pop	 ebx
  0003a	8b e5		 mov	 esp, ebp
  0003c	5d		 pop	 ebp
  0003d	c2 08 00	 ret	 8
??0CTraceFileAndLineInfo@ATL@@QAE@PBDH@Z ENDP		; ATL::CTraceFileAndLineInfo::CTraceFileAndLineInfo
_TEXT	ENDS
PUBLIC	?TraceV@CTrace@ATL@@QBAXPBDHKIPB_WPAD@Z		; ATL::CTrace::TraceV
EXTRN	?s_trace@CTrace@ATL@@2V12@A:QWORD		; ATL::CTrace::s_trace
; Function compile flags: /Odtp /RTCsu /ZI
;	COMDAT ??RCTraceFileAndLineInfo@ATL@@QBAXKIPB_WZZ
_TEXT	SEGMENT
_ptr$ = -8						; size = 4
_this$ = 8						; size = 4
_dwCategory$ = 12					; size = 4
_nLevel$ = 16						; size = 4
_pszFmt$ = 20						; size = 4
??RCTraceFileAndLineInfo@ATL@@QBAXKIPB_WZZ PROC		; ATL::CTraceFileAndLineInfo::operator(), COMDAT

; 186  : 	{

  00000	55		 push	 ebp
  00001	8b ec		 mov	 ebp, esp
  00003	81 ec cc 00 00
	00		 sub	 esp, 204		; 000000ccH
  00009	53		 push	 ebx
  0000a	56		 push	 esi
  0000b	57		 push	 edi
  0000c	8d bd 34 ff ff
	ff		 lea	 edi, DWORD PTR [ebp-204]
  00012	b9 33 00 00 00	 mov	 ecx, 51			; 00000033H
  00017	b8 cc cc cc cc	 mov	 eax, -858993460		; ccccccccH
  0001c	f3 ab		 rep stosd

; 187  : 		va_list ptr; va_start(ptr, pszFmt);

  0001e	8d 45 18	 lea	 eax, DWORD PTR _pszFmt$[ebp+4]
  00021	89 45 f8	 mov	 DWORD PTR _ptr$[ebp], eax

; 188  : 		ATL::CTrace::s_trace.TraceV(m_pszFileName, m_nLineNo, dwCategory, nLevel, pszFmt, ptr);

  00024	8b 45 f8	 mov	 eax, DWORD PTR _ptr$[ebp]
  00027	50		 push	 eax
  00028	8b 4d 14	 mov	 ecx, DWORD PTR _pszFmt$[ebp]
  0002b	51		 push	 ecx
  0002c	8b 55 10	 mov	 edx, DWORD PTR _nLevel$[ebp]
  0002f	52		 push	 edx
  00030	8b 45 0c	 mov	 eax, DWORD PTR _dwCategory$[ebp]
  00033	50		 push	 eax
  00034	8b 4d 08	 mov	 ecx, DWORD PTR _this$[ebp]
  00037	8b 51 04	 mov	 edx, DWORD PTR [ecx+4]
  0003a	52		 push	 edx
  0003b	8b 45 08	 mov	 eax, DWORD PTR _this$[ebp]
  0003e	8b 08		 mov	 ecx, DWORD PTR [eax]
  00040	51		 push	 ecx
  00041	68 00 00 00 00	 push	 OFFSET ?s_trace@CTrace@ATL@@2V12@A ; ATL::CTrace::s_trace
  00046	e8 00 00 00 00	 call	 ?TraceV@CTrace@ATL@@QBAXPBDHKIPB_WPAD@Z ; ATL::CTrace::TraceV
  0004b	83 c4 1c	 add	 esp, 28			; 0000001cH

; 189  : 		va_end(ptr);

  0004e	c7 45 f8 00 00
	00 00		 mov	 DWORD PTR _ptr$[ebp], 0

; 190  : 	}

  00055	5f		 pop	 edi
  00056	5e		 pop	 esi
  00057	5b		 pop	 ebx
  00058	81 c4 cc 00 00
	00		 add	 esp, 204		; 000000ccH
  0005e	3b ec		 cmp	 ebp, esp
  00060	e8 00 00 00 00	 call	 __RTC_CheckEsp
  00065	8b e5		 mov	 esp, ebp
  00067	5d		 pop	 ebp
  00068	c3		 ret	 0
??RCTraceFileAndLineInfo@ATL@@QBAXKIPB_WZZ ENDP		; ATL::CTraceFileAndLineInfo::operator()
_TEXT	ENDS
EXTRN	_AtlTraceVU:PROC
; Function compile flags: /Odtp /RTCsu /ZI
;	COMDAT ?TraceV@CTrace@ATL@@QBAXPBDHKIPB_WPAD@Z
_TEXT	SEGMENT
_this$ = 8						; size = 4
_pszFileName$ = 12					; size = 4
_nLine$ = 16						; size = 4
_dwCategory$ = 20					; size = 4
_nLevel$ = 24						; size = 4
_pszFmt$ = 28						; size = 4
_args$ = 32						; size = 4
?TraceV@CTrace@ATL@@QBAXPBDHKIPB_WPAD@Z PROC		; ATL::CTrace::TraceV, COMDAT

; 160  : 	{

  00000	55		 push	 ebp
  00001	8b ec		 mov	 ebp, esp
  00003	81 ec c0 00 00
	00		 sub	 esp, 192		; 000000c0H
  00009	53		 push	 ebx
  0000a	56		 push	 esi
  0000b	57		 push	 edi
  0000c	8d bd 40 ff ff
	ff		 lea	 edi, DWORD PTR [ebp-192]
  00012	b9 30 00 00 00	 mov	 ecx, 48			; 00000030H
  00017	b8 cc cc cc cc	 mov	 eax, -858993460		; ccccccccH
  0001c	f3 ab		 rep stosd

; 161  : 		AtlTraceVU(m_dwModule, pszFileName, nLine, dwCategory, nLevel, pszFmt, args);

  0001e	8b 45 20	 mov	 eax, DWORD PTR _args$[ebp]
  00021	50		 push	 eax
  00022	8b 4d 1c	 mov	 ecx, DWORD PTR _pszFmt$[ebp]
  00025	51		 push	 ecx
  00026	8b 55 18	 mov	 edx, DWORD PTR _nLevel$[ebp]
  00029	52		 push	 edx
  0002a	8b 45 14	 mov	 eax, DWORD PTR _dwCategory$[ebp]
  0002d	50		 push	 eax
  0002e	8b 4d 10	 mov	 ecx, DWORD PTR _nLine$[ebp]
  00031	51		 push	 ecx
  00032	8b 55 0c	 mov	 edx, DWORD PTR _pszFileName$[ebp]
  00035	52		 push	 edx
  00036	8b 45 08	 mov	 eax, DWORD PTR _this$[ebp]
  00039	8b 48 04	 mov	 ecx, DWORD PTR [eax+4]
  0003c	51		 push	 ecx
  0003d	e8 00 00 00 00	 call	 _AtlTraceVU
  00042	83 c4 1c	 add	 esp, 28			; 0000001cH

; 162  : 	}

  00045	5f		 pop	 edi
  00046	5e		 pop	 esi
  00047	5b		 pop	 ebx
  00048	81 c4 c0 00 00
	00		 add	 esp, 192		; 000000c0H
  0004e	3b ec		 cmp	 ebp, esp
  00050	e8 00 00 00 00	 call	 __RTC_CheckEsp
  00055	8b e5		 mov	 esp, ebp
  00057	5d		 pop	 ebp
  00058	c3		 ret	 0
?TraceV@CTrace@ATL@@QBAXPBDHKIPB_WPAD@Z ENDP		; ATL::CTrace::TraceV
; Function compile flags: /Odtp /RTCsu /ZI
_TEXT	ENDS
;	COMDAT ??BCTraceCategory@ATL@@QBEKXZ
_TEXT	SEGMENT
_this$ = -8						; size = 4
??BCTraceCategory@ATL@@QBEKXZ PROC			; ATL::CTraceCategory::operator unsigned long, COMDAT
; _this$ = ecx

; 233  : {

  00000	55		 push	 ebp
  00001	8b ec		 mov	 ebp, esp
  00003	81 ec cc 00 00
	00		 sub	 esp, 204		; 000000ccH
  00009	53		 push	 ebx
  0000a	56		 push	 esi
  0000b	57		 push	 edi
  0000c	51		 push	 ecx
  0000d	8d bd 34 ff ff
	ff		 lea	 edi, DWORD PTR [ebp-204]
  00013	b9 33 00 00 00	 mov	 ecx, 51			; 00000033H
  00018	b8 cc cc cc cc	 mov	 eax, -858993460		; ccccccccH
  0001d	f3 ab		 rep stosd
  0001f	59		 pop	 ecx
  00020	89 4d f8	 mov	 DWORD PTR _this$[ebp], ecx

; 234  : 	return( m_dwCategory );

  00023	8b 45 f8	 mov	 eax, DWORD PTR _this$[ebp]
  00026	8b 00		 mov	 eax, DWORD PTR [eax]

; 235  : }

  00028	5f		 pop	 edi
  00029	5e		 pop	 esi
  0002a	5b		 pop	 ebx
  0002b	8b e5		 mov	 esp, ebp
  0002d	5d		 pop	 ebp
  0002e	c3		 ret	 0
??BCTraceCategory@ATL@@QBEKXZ ENDP			; ATL::CTraceCategory::operator unsigned long
; Function compile flags: /Odtp /RTCsu /ZI
; File c:\program files (x86)\microsoft visual studio 9.0\vc\atlmfc\include\atlexcept.h
_TEXT	ENDS
;	COMDAT ??0CAtlException@ATL@@QAE@J@Z
_TEXT	SEGMENT
_this$ = -8						; size = 4
_hr$ = 8						; size = 4
??0CAtlException@ATL@@QAE@J@Z PROC			; ATL::CAtlException::CAtlException, COMDAT
; _this$ = ecx

; 42   : 	{

  00000	55		 push	 ebp
  00001	8b ec		 mov	 ebp, esp
  00003	81 ec cc 00 00
	00		 sub	 esp, 204		; 000000ccH
  00009	53		 push	 ebx
  0000a	56		 push	 esi
  0000b	57		 push	 edi
  0000c	51		 push	 ecx
  0000d	8d bd 34 ff ff
	ff		 lea	 edi, DWORD PTR [ebp-204]
  00013	b9 33 00 00 00	 mov	 ecx, 51			; 00000033H
  00018	b8 cc cc cc cc	 mov	 eax, -858993460		; ccccccccH
  0001d	f3 ab		 rep stosd
  0001f	59		 pop	 ecx
  00020	89 4d f8	 mov	 DWORD PTR _this$[ebp], ecx
  00023	8b 45 f8	 mov	 eax, DWORD PTR _this$[ebp]
  00026	8b 4d 08	 mov	 ecx, DWORD PTR _hr$[ebp]
  00029	89 08		 mov	 DWORD PTR [eax], ecx

; 43   : 	}

  0002b	8b 45 f8	 mov	 eax, DWORD PTR _this$[ebp]
  0002e	5f		 pop	 edi
  0002f	5e		 pop	 esi
  00030	5b		 pop	 ebx
  00031	8b e5		 mov	 esp, ebp
  00033	5d		 pop	 ebp
  00034	c2 04 00	 ret	 4
??0CAtlException@ATL@@QAE@J@Z ENDP			; ATL::CAtlException::CAtlException
; Function compile flags: /Odtp /RTCsu /ZI
; File c:\program files (x86)\microsoft visual studio 9.0\vc\atlmfc\include\atlcomcli.h
_TEXT	ENDS
;	COMDAT ?Detach@CComBSTR@ATL@@QAEPA_WXZ
_TEXT	SEGMENT
_s$ = -20						; size = 4
_this$ = -8						; size = 4
?Detach@CComBSTR@ATL@@QAEPA_WXZ PROC			; ATL::CComBSTR::Detach, COMDAT
; _this$ = ecx

; 791  : 	{

  00000	55		 push	 ebp
  00001	8b ec		 mov	 ebp, esp
  00003	81 ec d8 00 00
	00		 sub	 esp, 216		; 000000d8H
  00009	53		 push	 ebx
  0000a	56		 push	 esi
  0000b	57		 push	 edi
  0000c	51		 push	 ecx
  0000d	8d bd 28 ff ff
	ff		 lea	 edi, DWORD PTR [ebp-216]
  00013	b9 36 00 00 00	 mov	 ecx, 54			; 00000036H
  00018	b8 cc cc cc cc	 mov	 eax, -858993460		; ccccccccH
  0001d	f3 ab		 rep stosd
  0001f	59		 pop	 ecx
  00020	89 4d f8	 mov	 DWORD PTR _this$[ebp], ecx

; 792  : 		BSTR s = m_str;

  00023	8b 45 f8	 mov	 eax, DWORD PTR _this$[ebp]
  00026	8b 08		 mov	 ecx, DWORD PTR [eax]
  00028	89 4d ec	 mov	 DWORD PTR _s$[ebp], ecx

; 793  : 		m_str = NULL;

  0002b	8b 45 f8	 mov	 eax, DWORD PTR _this$[ebp]
  0002e	c7 00 00 00 00
	00		 mov	 DWORD PTR [eax], 0

; 794  : 		return s;

  00034	8b 45 ec	 mov	 eax, DWORD PTR _s$[ebp]

; 795  : 	}

  00037	5f		 pop	 edi
  00038	5e		 pop	 esi
  00039	5b		 pop	 ebx
  0003a	8b e5		 mov	 esp, ebp
  0003c	5d		 pop	 ebp
  0003d	c3		 ret	 0
?Detach@CComBSTR@ATL@@QAEPA_WXZ ENDP			; ATL::CComBSTR::Detach
; Function compile flags: /Odtp /RTCsu /ZI
_TEXT	ENDS
;	COMDAT ??7CComBSTR@ATL@@QBE_NXZ
_TEXT	SEGMENT
_this$ = -8						; size = 4
??7CComBSTR@ATL@@QBE_NXZ PROC				; ATL::CComBSTR::operator!, COMDAT
; _this$ = ecx

; 804  : 	{

  00000	55		 push	 ebp
  00001	8b ec		 mov	 ebp, esp
  00003	81 ec cc 00 00
	00		 sub	 esp, 204		; 000000ccH
  00009	53		 push	 ebx
  0000a	56		 push	 esi
  0000b	57		 push	 edi
  0000c	51		 push	 ecx
  0000d	8d bd 34 ff ff
	ff		 lea	 edi, DWORD PTR [ebp-204]
  00013	b9 33 00 00 00	 mov	 ecx, 51			; 00000033H
  00018	b8 cc cc cc cc	 mov	 eax, -858993460		; ccccccccH
  0001d	f3 ab		 rep stosd
  0001f	59		 pop	 ecx
  00020	89 4d f8	 mov	 DWORD PTR _this$[ebp], ecx

; 805  : #pragma warning(push)
; 806  : #pragma warning(disable:4068)
; 807  : #pragma prefast(push)
; 808  : #pragma prefast(disable:325, "The semantics of this function are about allocation, not content")
; 809  : 		return (m_str == NULL);

  00023	8b 45 f8	 mov	 eax, DWORD PTR _this$[ebp]
  00026	33 c9		 xor	 ecx, ecx
  00028	83 38 00	 cmp	 DWORD PTR [eax], 0
  0002b	0f 94 c1	 sete	 cl
  0002e	8a c1		 mov	 al, cl

; 810  : #pragma prefast(pop)
; 811  : #pragma warning(pop)
; 812  : 	}

  00030	5f		 pop	 edi
  00031	5e		 pop	 esi
  00032	5b		 pop	 ebx
  00033	8b e5		 mov	 esp, ebp
  00035	5d		 pop	 ebp
  00036	c3		 ret	 0
??7CComBSTR@ATL@@QBE_NXZ ENDP				; ATL::CComBSTR::operator!
_TEXT	ENDS
PUBLIC	??_C@_1BI@FCMLLAGN@?$AA?$CF?$AAd?$AA?4?$AA?$CF?$AAd?$AA?4?$AA?$CF?$AAd?$AA?4?$AA?$CF?$AAd?$AA?$AA@ ; `string'
PUBLIC	??_C@_13FPGAJAPJ@?$AA?2?$AA?$AA@		; `string'
PUBLIC	_GetFileVersionString
EXTRN	_VerQueryValueW@16:PROC
EXTRN	_GetFileVersionInfoW@16:PROC
EXTRN	??_U@YAPAXI@Z:PROC				; operator new[]
EXTRN	_GetFileVersionInfoSizeW@8:PROC
;	COMDAT ??_C@_1BI@FCMLLAGN@?$AA?$CF?$AAd?$AA?4?$AA?$CF?$AAd?$AA?4?$AA?$CF?$AAd?$AA?4?$AA?$CF?$AAd?$AA?$AA@
; File f:\lvdun\trunk\code\greenshield\dssetuphelper\dllmain.cpp
CONST	SEGMENT
??_C@_1BI@FCMLLAGN@?$AA?$CF?$AAd?$AA?4?$AA?$CF?$AAd?$AA?4?$AA?$CF?$AAd?$AA?4?$AA?$CF?$AAd?$AA?$AA@ DB '%'
	DB	00H, 'd', 00H, '.', 00H, '%', 00H, 'd', 00H, '.', 00H, '%', 00H
	DB	'd', 00H, '.', 00H, '%', 00H, 'd', 00H, 00H, 00H ; `string'
CONST	ENDS
;	COMDAT ??_C@_13FPGAJAPJ@?$AA?2?$AA?$AA@
CONST	SEGMENT
??_C@_13FPGAJAPJ@?$AA?2?$AA?$AA@ DB '\', 00H, 00H, 00H	; `string'
; Function compile flags: /Odtp /RTCsu /ZI
CONST	ENDS
;	COMDAT _GetFileVersionString
_TEXT	SEGMENT
$T144373 = -284						; size = 4
$T144374 = -272						; size = 4
_uLength$132219 = -68					; size = 4
_pvi$132218 = -56					; size = 4
_pVersionInfo$132214 = -44				; size = 4
_dwSize$ = -32						; size = 4
_dwHandle$ = -20					; size = 4
_bResult$ = -8						; size = 4
_pszFileName$ = 8					; size = 4
_pszVersionString$ = 12					; size = 4
_GetFileVersionString PROC				; COMDAT

; 85   : {

  00000	55		 push	 ebp
  00001	8b ec		 mov	 ebp, esp
  00003	81 ec 20 01 00
	00		 sub	 esp, 288		; 00000120H
  00009	53		 push	 ebx
  0000a	56		 push	 esi
  0000b	57		 push	 edi
  0000c	8d bd e0 fe ff
	ff		 lea	 edi, DWORD PTR [ebp-288]
  00012	b9 48 00 00 00	 mov	 ecx, 72			; 00000048H
  00017	b8 cc cc cc cc	 mov	 eax, -858993460		; ccccccccH
  0001c	f3 ab		 rep stosd

; 86   : 	if(pszFileName == NULL || pszVersionString == NULL)

  0001e	83 7d 08 00	 cmp	 DWORD PTR _pszFileName$[ebp], 0
  00022	74 06		 je	 SHORT $LN4@GetFileVer
  00024	83 7d 0c 00	 cmp	 DWORD PTR _pszVersionString$[ebp], 0
  00028	75 05		 jne	 SHORT $LN5@GetFileVer
$LN4@GetFileVer:

; 87   : 		return ;

  0002a	e9 14 01 00 00	 jmp	 $LN6@GetFileVer
$LN5@GetFileVer:

; 88   : 
; 89   : 	BOOL bResult = FALSE;

  0002f	c7 45 f8 00 00
	00 00		 mov	 DWORD PTR _bResult$[ebp], 0

; 90   : 	DWORD dwHandle = 0;

  00036	c7 45 ec 00 00
	00 00		 mov	 DWORD PTR _dwHandle$[ebp], 0

; 91   : 	DWORD dwSize = ::GetFileVersionInfoSize(pszFileName, &dwHandle);

  0003d	8d 45 ec	 lea	 eax, DWORD PTR _dwHandle$[ebp]
  00040	50		 push	 eax
  00041	8b 4d 08	 mov	 ecx, DWORD PTR _pszFileName$[ebp]
  00044	51		 push	 ecx
  00045	e8 00 00 00 00	 call	 _GetFileVersionInfoSizeW@8
  0004a	89 45 e0	 mov	 DWORD PTR _dwSize$[ebp], eax

; 92   : 	if(dwSize > 0)

  0004d	83 7d e0 00	 cmp	 DWORD PTR _dwSize$[ebp], 0
  00051	0f 86 ec 00 00
	00		 jbe	 $LN6@GetFileVer

; 93   : 	{
; 94   : 		TCHAR * pVersionInfo = new TCHAR[dwSize+1];

  00057	8b 45 e0	 mov	 eax, DWORD PTR _dwSize$[ebp]
  0005a	83 c0 01	 add	 eax, 1
  0005d	33 c9		 xor	 ecx, ecx
  0005f	ba 02 00 00 00	 mov	 edx, 2
  00064	f7 e2		 mul	 edx
  00066	0f 90 c1	 seto	 cl
  00069	f7 d9		 neg	 ecx
  0006b	0b c8		 or	 ecx, eax
  0006d	51		 push	 ecx
  0006e	e8 00 00 00 00	 call	 ??_U@YAPAXI@Z		; operator new[]
  00073	83 c4 04	 add	 esp, 4
  00076	89 85 e4 fe ff
	ff		 mov	 DWORD PTR $T144373[ebp], eax
  0007c	8b 85 e4 fe ff
	ff		 mov	 eax, DWORD PTR $T144373[ebp]
  00082	89 45 d4	 mov	 DWORD PTR _pVersionInfo$132214[ebp], eax

; 95   : 		if(::GetFileVersionInfo(pszFileName, dwHandle, dwSize, pVersionInfo))

  00085	8b 45 d4	 mov	 eax, DWORD PTR _pVersionInfo$132214[ebp]
  00088	50		 push	 eax
  00089	8b 4d e0	 mov	 ecx, DWORD PTR _dwSize$[ebp]
  0008c	51		 push	 ecx
  0008d	8b 55 ec	 mov	 edx, DWORD PTR _dwHandle$[ebp]
  00090	52		 push	 edx
  00091	8b 45 08	 mov	 eax, DWORD PTR _pszFileName$[ebp]
  00094	50		 push	 eax
  00095	e8 00 00 00 00	 call	 _GetFileVersionInfoW@16
  0009a	85 c0		 test	 eax, eax
  0009c	0f 84 89 00 00
	00		 je	 $LN2@GetFileVer

; 96   : 		{
; 97   : 			VS_FIXEDFILEINFO * pvi;
; 98   : 			UINT uLength = 0;

  000a2	c7 45 bc 00 00
	00 00		 mov	 DWORD PTR _uLength$132219[ebp], 0

; 99   : 			if(::VerQueryValue(pVersionInfo, _T("\\"), (void **)&pvi, &uLength))

  000a9	8d 45 bc	 lea	 eax, DWORD PTR _uLength$132219[ebp]
  000ac	50		 push	 eax
  000ad	8d 4d c8	 lea	 ecx, DWORD PTR _pvi$132218[ebp]
  000b0	51		 push	 ecx
  000b1	68 00 00 00 00	 push	 OFFSET ??_C@_13FPGAJAPJ@?$AA?2?$AA?$AA@
  000b6	8b 55 d4	 mov	 edx, DWORD PTR _pVersionInfo$132214[ebp]
  000b9	52		 push	 edx
  000ba	e8 00 00 00 00	 call	 _VerQueryValueW@16
  000bf	85 c0		 test	 eax, eax
  000c1	74 68		 je	 SHORT $LN2@GetFileVer

; 100  : 			{
; 101  : 				_stprintf(pszVersionString, _T("%d.%d.%d.%d"),
; 102  : 					HIWORD(pvi->dwFileVersionMS), LOWORD(pvi->dwFileVersionMS),
; 103  : 					HIWORD(pvi->dwFileVersionLS), LOWORD(pvi->dwFileVersionLS));

  000c3	8b 45 c8	 mov	 eax, DWORD PTR _pvi$132218[ebp]
  000c6	8b 48 0c	 mov	 ecx, DWORD PTR [eax+12]
  000c9	81 e1 ff ff 00
	00		 and	 ecx, 65535		; 0000ffffH
  000cf	0f b7 d1	 movzx	 edx, cx
  000d2	8b f4		 mov	 esi, esp
  000d4	52		 push	 edx
  000d5	8b 45 c8	 mov	 eax, DWORD PTR _pvi$132218[ebp]
  000d8	8b 48 0c	 mov	 ecx, DWORD PTR [eax+12]
  000db	c1 e9 10	 shr	 ecx, 16			; 00000010H
  000de	81 e1 ff ff 00
	00		 and	 ecx, 65535		; 0000ffffH
  000e4	0f b7 d1	 movzx	 edx, cx
  000e7	52		 push	 edx
  000e8	8b 45 c8	 mov	 eax, DWORD PTR _pvi$132218[ebp]
  000eb	8b 48 08	 mov	 ecx, DWORD PTR [eax+8]
  000ee	81 e1 ff ff 00
	00		 and	 ecx, 65535		; 0000ffffH
  000f4	0f b7 d1	 movzx	 edx, cx
  000f7	52		 push	 edx
  000f8	8b 45 c8	 mov	 eax, DWORD PTR _pvi$132218[ebp]
  000fb	8b 48 08	 mov	 ecx, DWORD PTR [eax+8]
  000fe	c1 e9 10	 shr	 ecx, 16			; 00000010H
  00101	81 e1 ff ff 00
	00		 and	 ecx, 65535		; 0000ffffH
  00107	0f b7 d1	 movzx	 edx, cx
  0010a	52		 push	 edx
  0010b	68 00 00 00 00	 push	 OFFSET ??_C@_1BI@FCMLLAGN@?$AA?$CF?$AAd?$AA?4?$AA?$CF?$AAd?$AA?4?$AA?$CF?$AAd?$AA?4?$AA?$CF?$AAd?$AA?$AA@
  00110	8b 45 0c	 mov	 eax, DWORD PTR _pszVersionString$[ebp]
  00113	50		 push	 eax
  00114	ff 15 00 00 00
	00		 call	 DWORD PTR __imp___swprintf
  0011a	83 c4 18	 add	 esp, 24			; 00000018H
  0011d	3b f4		 cmp	 esi, esp
  0011f	e8 00 00 00 00	 call	 __RTC_CheckEsp

; 104  : 				bResult = TRUE;

  00124	c7 45 f8 01 00
	00 00		 mov	 DWORD PTR _bResult$[ebp], 1
$LN2@GetFileVer:

; 105  : 			}
; 106  : 		}
; 107  : 		delete pVersionInfo;

  0012b	8b 45 d4	 mov	 eax, DWORD PTR _pVersionInfo$132214[ebp]
  0012e	89 85 f0 fe ff
	ff		 mov	 DWORD PTR $T144374[ebp], eax
  00134	8b 8d f0 fe ff
	ff		 mov	 ecx, DWORD PTR $T144374[ebp]
  0013a	51		 push	 ecx
  0013b	e8 00 00 00 00	 call	 ??3@YAXPAX@Z		; operator delete
  00140	83 c4 04	 add	 esp, 4
$LN6@GetFileVer:

; 108  : 	}
; 109  : }

  00143	52		 push	 edx
  00144	8b cd		 mov	 ecx, ebp
  00146	50		 push	 eax
  00147	8d 15 00 00 00
	00		 lea	 edx, DWORD PTR $LN12@GetFileVer
  0014d	e8 00 00 00 00	 call	 @_RTC_CheckStackVars@8
  00152	58		 pop	 eax
  00153	5a		 pop	 edx
  00154	5f		 pop	 edi
  00155	5e		 pop	 esi
  00156	5b		 pop	 ebx
  00157	81 c4 20 01 00
	00		 add	 esp, 288		; 00000120H
  0015d	3b ec		 cmp	 ebp, esp
  0015f	e8 00 00 00 00	 call	 __RTC_CheckEsp
  00164	8b e5		 mov	 esp, ebp
  00166	5d		 pop	 ebp
  00167	c3		 ret	 0
$LN12@GetFileVer:
  00168	03 00 00 00	 DD	 3
  0016c	00 00 00 00	 DD	 $LN11@GetFileVer
$LN11@GetFileVer:
  00170	ec ff ff ff	 DD	 -20			; ffffffecH
  00174	04 00 00 00	 DD	 4
  00178	00 00 00 00	 DD	 $LN8@GetFileVer
  0017c	c8 ff ff ff	 DD	 -56			; ffffffc8H
  00180	04 00 00 00	 DD	 4
  00184	00 00 00 00	 DD	 $LN9@GetFileVer
  00188	bc ff ff ff	 DD	 -68			; ffffffbcH
  0018c	04 00 00 00	 DD	 4
  00190	00 00 00 00	 DD	 $LN10@GetFileVer
$LN10@GetFileVer:
  00194	75		 DB	 117			; 00000075H
  00195	4c		 DB	 76			; 0000004cH
  00196	65		 DB	 101			; 00000065H
  00197	6e		 DB	 110			; 0000006eH
  00198	67		 DB	 103			; 00000067H
  00199	74		 DB	 116			; 00000074H
  0019a	68		 DB	 104			; 00000068H
  0019b	00		 DB	 0
$LN9@GetFileVer:
  0019c	70		 DB	 112			; 00000070H
  0019d	76		 DB	 118			; 00000076H
  0019e	69		 DB	 105			; 00000069H
  0019f	00		 DB	 0
$LN8@GetFileVer:
  001a0	64		 DB	 100			; 00000064H
  001a1	77		 DB	 119			; 00000077H
  001a2	48		 DB	 72			; 00000048H
  001a3	61		 DB	 97			; 00000061H
  001a4	6e		 DB	 110			; 0000006eH
  001a5	64		 DB	 100			; 00000064H
  001a6	6c		 DB	 108			; 0000006cH
  001a7	65		 DB	 101			; 00000065H
  001a8	00		 DB	 0
_GetFileVersionString ENDP
_TEXT	ENDS
PUBLIC	__$ArrayPad$
PUBLIC	_GetPeerID
; Function compile flags: /Odtp /RTCsu /ZI
;	COMDAT _GetPeerID
_TEXT	SEGMENT
$T144383 = -241						; size = 1
_strPeerID$ = -40					; size = 32
__$ArrayPad$ = -4					; size = 4
_pszPeerID$ = 8						; size = 4
_GetPeerID PROC						; COMDAT

; 113  : {

  00000	55		 push	 ebp
  00001	8b ec		 mov	 ebp, esp
  00003	81 ec f8 00 00
	00		 sub	 esp, 248		; 000000f8H
  00009	53		 push	 ebx
  0000a	56		 push	 esi
  0000b	57		 push	 edi
  0000c	8d bd 08 ff ff
	ff		 lea	 edi, DWORD PTR [ebp-248]
  00012	b9 3e 00 00 00	 mov	 ecx, 62			; 0000003eH
  00017	b8 cc cc cc cc	 mov	 eax, -858993460		; ccccccccH
  0001c	f3 ab		 rep stosd
  0001e	a1 00 00 00 00	 mov	 eax, DWORD PTR ___security_cookie
  00023	33 c5		 xor	 eax, ebp
  00025	89 45 fc	 mov	 DWORD PTR __$ArrayPad$[ebp], eax

; 114  : 	std::wstring strPeerID;

  00028	6a 01		 push	 1
  0002a	8d 8d 0f ff ff
	ff		 lea	 ecx, DWORD PTR $T144383[ebp]
  00030	e8 00 00 00 00	 call	 ??0_Has_debug_it@?$basic_string@_WU?$char_traits@_W@std@@V?$allocator@_W@2@@std@@QAE@_N@Z ; std::basic_string<wchar_t,std::char_traits<wchar_t>,std::allocator<wchar_t> >::_Has_debug_it::_Has_debug_it
  00035	8b f4		 mov	 esi, esp
  00037	0f b6 00	 movzx	 eax, BYTE PTR [eax]
  0003a	50		 push	 eax
  0003b	8d 4d d8	 lea	 ecx, DWORD PTR _strPeerID$[ebp]
  0003e	ff 15 00 00 00
	00		 call	 DWORD PTR __imp_??0?$basic_string@_WU?$char_traits@_W@std@@V?$allocator@_W@2@@std@@QAE@U_Has_debug_it@01@@Z
  00044	3b f4		 cmp	 esi, esp
  00046	e8 00 00 00 00	 call	 __RTC_CheckEsp

; 115  : 	GetPeerId_(strPeerID);

  0004b	8d 45 d8	 lea	 eax, DWORD PTR _strPeerID$[ebp]
  0004e	50		 push	 eax
  0004f	e8 00 00 00 00	 call	 ?GetPeerId_@@YAXAAV?$basic_string@_WU?$char_traits@_W@std@@V?$allocator@_W@2@@std@@@Z ; GetPeerId_
  00054	83 c4 04	 add	 esp, 4

; 116  : 	_tcscpy(pszPeerID,strPeerID.c_str());

  00057	8b f4		 mov	 esi, esp
  00059	8d 4d d8	 lea	 ecx, DWORD PTR _strPeerID$[ebp]
  0005c	ff 15 00 00 00
	00		 call	 DWORD PTR __imp_?c_str@?$basic_string@_WU?$char_traits@_W@std@@V?$allocator@_W@2@@std@@QBEPB_WXZ
  00062	3b f4		 cmp	 esi, esp
  00064	e8 00 00 00 00	 call	 __RTC_CheckEsp
  00069	8b f4		 mov	 esi, esp
  0006b	50		 push	 eax
  0006c	8b 45 08	 mov	 eax, DWORD PTR _pszPeerID$[ebp]
  0006f	50		 push	 eax
  00070	ff 15 00 00 00
	00		 call	 DWORD PTR __imp__wcscpy
  00076	83 c4 08	 add	 esp, 8
  00079	3b f4		 cmp	 esi, esp
  0007b	e8 00 00 00 00	 call	 __RTC_CheckEsp

; 117  : }

  00080	8b f4		 mov	 esi, esp
  00082	8d 4d d8	 lea	 ecx, DWORD PTR _strPeerID$[ebp]
  00085	ff 15 00 00 00
	00		 call	 DWORD PTR __imp_??1?$basic_string@_WU?$char_traits@_W@std@@V?$allocator@_W@2@@std@@QAE@XZ
  0008b	3b f4		 cmp	 esi, esp
  0008d	e8 00 00 00 00	 call	 __RTC_CheckEsp
  00092	52		 push	 edx
  00093	8b cd		 mov	 ecx, ebp
  00095	50		 push	 eax
  00096	8d 15 00 00 00
	00		 lea	 edx, DWORD PTR $LN5@GetPeerID
  0009c	e8 00 00 00 00	 call	 @_RTC_CheckStackVars@8
  000a1	58		 pop	 eax
  000a2	5a		 pop	 edx
  000a3	5f		 pop	 edi
  000a4	5e		 pop	 esi
  000a5	5b		 pop	 ebx
  000a6	8b 4d fc	 mov	 ecx, DWORD PTR __$ArrayPad$[ebp]
  000a9	33 cd		 xor	 ecx, ebp
  000ab	e8 00 00 00 00	 call	 @__security_check_cookie@4
  000b0	81 c4 f8 00 00
	00		 add	 esp, 248		; 000000f8H
  000b6	3b ec		 cmp	 ebp, esp
  000b8	e8 00 00 00 00	 call	 __RTC_CheckEsp
  000bd	8b e5		 mov	 esp, ebp
  000bf	5d		 pop	 ebp
  000c0	c3		 ret	 0
  000c1	8d 49 00	 npad	 3
$LN5@GetPeerID:
  000c4	01 00 00 00	 DD	 1
  000c8	00 00 00 00	 DD	 $LN4@GetPeerID
$LN4@GetPeerID:
  000cc	d8 ff ff ff	 DD	 -40			; ffffffd8H
  000d0	20 00 00 00	 DD	 32			; 00000020H
  000d4	00 00 00 00	 DD	 $LN3@GetPeerID
$LN3@GetPeerID:
  000d8	73		 DB	 115			; 00000073H
  000d9	74		 DB	 116			; 00000074H
  000da	72		 DB	 114			; 00000072H
  000db	50		 DB	 80			; 00000050H
  000dc	65		 DB	 101			; 00000065H
  000dd	65		 DB	 101			; 00000065H
  000de	72		 DB	 114			; 00000072H
  000df	49		 DB	 73			; 00000049H
  000e0	44		 DB	 68			; 00000044H
  000e1	00		 DB	 0
_GetPeerID ENDP
_TEXT	ENDS
PUBLIC	_NsisTSLOG
; Function compile flags: /Odtp /RTCsu /ZI
;	COMDAT _NsisTSLOG
_TEXT	SEGMENT
_pszInfo$ = 8						; size = 4
_NsisTSLOG PROC						; COMDAT

; 120  : {

  00000	55		 push	 ebp
  00001	8b ec		 mov	 ebp, esp
  00003	81 ec c0 00 00
	00		 sub	 esp, 192		; 000000c0H
  00009	53		 push	 ebx
  0000a	56		 push	 esi
  0000b	57		 push	 edi
  0000c	8d bd 40 ff ff
	ff		 lea	 edi, DWORD PTR [ebp-192]
  00012	b9 30 00 00 00	 mov	 ecx, 48			; 00000030H
  00017	b8 cc cc cc cc	 mov	 eax, -858993460		; ccccccccH
  0001c	f3 ab		 rep stosd

; 121  : 	if(pszInfo == NULL)
; 122  : 		return;
; 123  : 	TSDEBUG4CXX("<NSIS> " << pszInfo);
; 124  : }

  0001e	5f		 pop	 edi
  0001f	5e		 pop	 esi
  00020	5b		 pop	 ebx
  00021	8b e5		 mov	 esp, ebp
  00023	5d		 pop	 ebp
  00024	c3		 ret	 0
_NsisTSLOG ENDP
_TEXT	ENDS
PUBLIC	_GetTime
; Function compile flags: /Odtp /RTCsu /ZI
;	COMDAT _GetTime
_TEXT	SEGMENT
_t$ = -12						; size = 8
_pnTime$ = 8						; size = 4
_GetTime PROC						; COMDAT

; 127  : {

  00000	55		 push	 ebp
  00001	8b ec		 mov	 ebp, esp
  00003	81 ec d0 00 00
	00		 sub	 esp, 208		; 000000d0H
  00009	53		 push	 ebx
  0000a	56		 push	 esi
  0000b	57		 push	 edi
  0000c	8d bd 30 ff ff
	ff		 lea	 edi, DWORD PTR [ebp-208]
  00012	b9 34 00 00 00	 mov	 ecx, 52			; 00000034H
  00017	b8 cc cc cc cc	 mov	 eax, -858993460		; ccccccccH
  0001c	f3 ab		 rep stosd

; 128  : 	TSAUTO();
; 129  : 	if(pnTime == NULL)

  0001e	83 7d 08 00	 cmp	 DWORD PTR _pnTime$[ebp], 0
  00022	75 02		 jne	 SHORT $LN1@GetTime

; 130  : 		return;

  00024	eb 14		 jmp	 SHORT $LN2@GetTime
$LN1@GetTime:

; 131  : 	time_t t;
; 132  : 	time( &t );

  00026	8d 45 f4	 lea	 eax, DWORD PTR _t$[ebp]
  00029	50		 push	 eax
  0002a	e8 00 00 00 00	 call	 _time
  0002f	83 c4 04	 add	 esp, 4

; 133  : 	*pnTime = (DWORD)t;

  00032	8b 45 f4	 mov	 eax, DWORD PTR _t$[ebp]
  00035	8b 4d 08	 mov	 ecx, DWORD PTR _pnTime$[ebp]
  00038	89 01		 mov	 DWORD PTR [ecx], eax
$LN2@GetTime:

; 134  : }

  0003a	52		 push	 edx
  0003b	8b cd		 mov	 ecx, ebp
  0003d	50		 push	 eax
  0003e	8d 15 00 00 00
	00		 lea	 edx, DWORD PTR $LN6@GetTime
  00044	e8 00 00 00 00	 call	 @_RTC_CheckStackVars@8
  00049	58		 pop	 eax
  0004a	5a		 pop	 edx
  0004b	5f		 pop	 edi
  0004c	5e		 pop	 esi
  0004d	5b		 pop	 ebx
  0004e	81 c4 d0 00 00
	00		 add	 esp, 208		; 000000d0H
  00054	3b ec		 cmp	 ebp, esp
  00056	e8 00 00 00 00	 call	 __RTC_CheckEsp
  0005b	8b e5		 mov	 esp, ebp
  0005d	5d		 pop	 ebp
  0005e	c3		 ret	 0
  0005f	90		 npad	 1
$LN6@GetTime:
  00060	01 00 00 00	 DD	 1
  00064	00 00 00 00	 DD	 $LN5@GetTime
$LN5@GetTime:
  00068	f4 ff ff ff	 DD	 -12			; fffffff4H
  0006c	08 00 00 00	 DD	 8
  00070	00 00 00 00	 DD	 $LN4@GetTime
$LN4@GetTime:
  00074	74		 DB	 116			; 00000074H
  00075	00		 DB	 0
_GetTime ENDP
; Function compile flags: /Odtp /RTCsu /ZI
; File c:\program files (x86)\microsoft visual studio 9.0\vc\include\xstring
_TEXT	ENDS
;	COMDAT ??0_Has_debug_it@?$basic_string@_WU?$char_traits@_W@std@@V?$allocator@_W@2@@std@@QAE@_N@Z
_TEXT	SEGMENT
_this$ = -8						; size = 4
__Val$ = 8						; size = 1
??0_Has_debug_it@?$basic_string@_WU?$char_traits@_W@std@@V?$allocator@_W@2@@std@@QAE@_N@Z PROC ; std::basic_string<wchar_t,std::char_traits<wchar_t>,std::allocator<wchar_t> >::_Has_debug_it::_Has_debug_it, COMDAT
; _this$ = ecx

; 555  : 		explicit _Has_debug_it(bool _Val): _Value(_Val) { }

  00000	55		 push	 ebp
  00001	8b ec		 mov	 ebp, esp
  00003	81 ec cc 00 00
	00		 sub	 esp, 204		; 000000ccH
  00009	53		 push	 ebx
  0000a	56		 push	 esi
  0000b	57		 push	 edi
  0000c	51		 push	 ecx
  0000d	8d bd 34 ff ff
	ff		 lea	 edi, DWORD PTR [ebp-204]
  00013	b9 33 00 00 00	 mov	 ecx, 51			; 00000033H
  00018	b8 cc cc cc cc	 mov	 eax, -858993460		; ccccccccH
  0001d	f3 ab		 rep stosd
  0001f	59		 pop	 ecx
  00020	89 4d f8	 mov	 DWORD PTR _this$[ebp], ecx
  00023	8b 45 f8	 mov	 eax, DWORD PTR _this$[ebp]
  00026	8a 4d 08	 mov	 cl, BYTE PTR __Val$[ebp]
  00029	88 08		 mov	 BYTE PTR [eax], cl
  0002b	8b 45 f8	 mov	 eax, DWORD PTR _this$[ebp]
  0002e	5f		 pop	 edi
  0002f	5e		 pop	 esi
  00030	5b		 pop	 ebx
  00031	8b e5		 mov	 esp, ebp
  00033	5d		 pop	 ebp
  00034	c2 04 00	 ret	 4
??0_Has_debug_it@?$basic_string@_WU?$char_traits@_W@std@@V?$allocator@_W@2@@std@@QAE@_N@Z ENDP ; std::basic_string<wchar_t,std::char_traits<wchar_t>,std::allocator<wchar_t> >::_Has_debug_it::_Has_debug_it
; Function compile flags: /Odtp /RTCsu /ZI
; File c:\program files (x86)\microsoft visual studio 9.0\vc\atlmfc\include\atldef.h
_TEXT	ENDS
;	COMDAT ??__Eclash@Inconsistent_definition_of_symbol__ATL_MIXED@@YAXXZ
text$yc	SEGMENT
$T144398 = -197						; size = 1
??__Eclash@Inconsistent_definition_of_symbol__ATL_MIXED@@YAXXZ PROC ; Inconsistent_definition_of_symbol__ATL_MIXED::`dynamic initializer for 'clash'', COMDAT

; 66   : 	__declspec(selectany) _Please_define_it_the_same_throughout_your_project clash = _Please_define_it_the_same_throughout_your_project ();

  00000	55		 push	 ebp
  00001	8b ec		 mov	 ebp, esp
  00003	81 ec cc 00 00
	00		 sub	 esp, 204		; 000000ccH
  00009	53		 push	 ebx
  0000a	56		 push	 esi
  0000b	57		 push	 edi
  0000c	8d bd 34 ff ff
	ff		 lea	 edi, DWORD PTR [ebp-204]
  00012	b9 33 00 00 00	 mov	 ecx, 51			; 00000033H
  00017	b8 cc cc cc cc	 mov	 eax, -858993460		; ccccccccH
  0001c	f3 ab		 rep stosd
  0001e	33 c0		 xor	 eax, eax
  00020	88 85 3b ff ff
	ff		 mov	 BYTE PTR $T144398[ebp], al
  00026	5f		 pop	 edi
  00027	5e		 pop	 esi
  00028	5b		 pop	 ebx
  00029	8b e5		 mov	 esp, ebp
  0002b	5d		 pop	 ebp
  0002c	c3		 ret	 0
??__Eclash@Inconsistent_definition_of_symbol__ATL_MIXED@@YAXXZ ENDP ; Inconsistent_definition_of_symbol__ATL_MIXED::`dynamic initializer for 'clash''
text$yc	ENDS
PUBLIC	??0Thank_you@Define_the_symbol__ATL_MIXED@@QAE@XZ ; Define_the_symbol__ATL_MIXED::Thank_you::Thank_you
; Function compile flags: /Odtp /RTCsu /ZI
;	COMDAT ??__Eclash@Define_the_symbol__ATL_MIXED@@YAXXZ
text$yc	SEGMENT
??__Eclash@Define_the_symbol__ATL_MIXED@@YAXXZ PROC	; Define_the_symbol__ATL_MIXED::`dynamic initializer for 'clash'', COMDAT

; 82   : 	__declspec(selectany) Thank_you clash = Thank_you();

  00000	55		 push	 ebp
  00001	8b ec		 mov	 ebp, esp
  00003	81 ec c0 00 00
	00		 sub	 esp, 192		; 000000c0H
  00009	53		 push	 ebx
  0000a	56		 push	 esi
  0000b	57		 push	 edi
  0000c	8d bd 40 ff ff
	ff		 lea	 edi, DWORD PTR [ebp-192]
  00012	b9 30 00 00 00	 mov	 ecx, 48			; 00000030H
  00017	b8 cc cc cc cc	 mov	 eax, -858993460		; ccccccccH
  0001c	f3 ab		 rep stosd
  0001e	b9 00 00 00 00	 mov	 ecx, OFFSET ?clash@Define_the_symbol__ATL_MIXED@@3UThank_you@1@A ; Define_the_symbol__ATL_MIXED::clash
  00023	e8 00 00 00 00	 call	 ??0Thank_you@Define_the_symbol__ATL_MIXED@@QAE@XZ
  00028	5f		 pop	 edi
  00029	5e		 pop	 esi
  0002a	5b		 pop	 ebx
  0002b	81 c4 c0 00 00
	00		 add	 esp, 192		; 000000c0H
  00031	3b ec		 cmp	 ebp, esp
  00033	e8 00 00 00 00	 call	 __RTC_CheckEsp
  00038	8b e5		 mov	 esp, ebp
  0003a	5d		 pop	 ebp
  0003b	c3		 ret	 0
??__Eclash@Define_the_symbol__ATL_MIXED@@YAXXZ ENDP	; Define_the_symbol__ATL_MIXED::`dynamic initializer for 'clash''
text$yc	ENDS
PUBLIC	??_7Thank_you@Define_the_symbol__ATL_MIXED@@6B@	; Define_the_symbol__ATL_MIXED::Thank_you::`vftable'
PUBLIC	??_R4Thank_you@Define_the_symbol__ATL_MIXED@@6B@ ; Define_the_symbol__ATL_MIXED::Thank_you::`RTTI Complete Object Locator'
PUBLIC	??_R0?AUThank_you@Define_the_symbol__ATL_MIXED@@@8 ; Define_the_symbol__ATL_MIXED::Thank_you `RTTI Type Descriptor'
PUBLIC	??_R3Thank_you@Define_the_symbol__ATL_MIXED@@8	; Define_the_symbol__ATL_MIXED::Thank_you::`RTTI Class Hierarchy Descriptor'
PUBLIC	??_R2Thank_you@Define_the_symbol__ATL_MIXED@@8	; Define_the_symbol__ATL_MIXED::Thank_you::`RTTI Base Class Array'
PUBLIC	??_R1A@?0A@EA@Thank_you@Define_the_symbol__ATL_MIXED@@8 ; Define_the_symbol__ATL_MIXED::Thank_you::`RTTI Base Class Descriptor at (0,-1,0,64)'
PUBLIC	?one@Thank_you@Define_the_symbol__ATL_MIXED@@UAEXXZ ; Define_the_symbol__ATL_MIXED::Thank_you::one
;	COMDAT ??_R1A@?0A@EA@Thank_you@Define_the_symbol__ATL_MIXED@@8
rdata$r	SEGMENT
??_R1A@?0A@EA@Thank_you@Define_the_symbol__ATL_MIXED@@8 DD FLAT:??_R0?AUThank_you@Define_the_symbol__ATL_MIXED@@@8 ; Define_the_symbol__ATL_MIXED::Thank_you::`RTTI Base Class Descriptor at (0,-1,0,64)'
	DD	00H
	DD	00H
	DD	0ffffffffH
	DD	00H
	DD	040H
	DD	FLAT:??_R3Thank_you@Define_the_symbol__ATL_MIXED@@8
rdata$r	ENDS
;	COMDAT ??_R2Thank_you@Define_the_symbol__ATL_MIXED@@8
rdata$r	SEGMENT
??_R2Thank_you@Define_the_symbol__ATL_MIXED@@8 DD FLAT:??_R1A@?0A@EA@Thank_you@Define_the_symbol__ATL_MIXED@@8 ; Define_the_symbol__ATL_MIXED::Thank_you::`RTTI Base Class Array'
rdata$r	ENDS
;	COMDAT ??_R3Thank_you@Define_the_symbol__ATL_MIXED@@8
rdata$r	SEGMENT
??_R3Thank_you@Define_the_symbol__ATL_MIXED@@8 DD 00H	; Define_the_symbol__ATL_MIXED::Thank_you::`RTTI Class Hierarchy Descriptor'
	DD	00H
	DD	01H
	DD	FLAT:??_R2Thank_you@Define_the_symbol__ATL_MIXED@@8
rdata$r	ENDS
;	COMDAT ??_R0?AUThank_you@Define_the_symbol__ATL_MIXED@@@8
_DATA	SEGMENT
??_R0?AUThank_you@Define_the_symbol__ATL_MIXED@@@8 DD FLAT:??_7type_info@@6B@ ; Define_the_symbol__ATL_MIXED::Thank_you `RTTI Type Descriptor'
	DD	00H
	DB	'.?AUThank_you@Define_the_symbol__ATL_MIXED@@', 00H
_DATA	ENDS
;	COMDAT ??_R4Thank_you@Define_the_symbol__ATL_MIXED@@6B@
rdata$r	SEGMENT
??_R4Thank_you@Define_the_symbol__ATL_MIXED@@6B@ DD 00H	; Define_the_symbol__ATL_MIXED::Thank_you::`RTTI Complete Object Locator'
	DD	00H
	DD	00H
	DD	FLAT:??_R0?AUThank_you@Define_the_symbol__ATL_MIXED@@@8
	DD	FLAT:??_R3Thank_you@Define_the_symbol__ATL_MIXED@@8
rdata$r	ENDS
;	COMDAT ??_7Thank_you@Define_the_symbol__ATL_MIXED@@6B@
CONST	SEGMENT
??_7Thank_you@Define_the_symbol__ATL_MIXED@@6B@ DD FLAT:??_R4Thank_you@Define_the_symbol__ATL_MIXED@@6B@ ; Define_the_symbol__ATL_MIXED::Thank_you::`vftable'
	DD	FLAT:?one@Thank_you@Define_the_symbol__ATL_MIXED@@UAEXXZ
; Function compile flags: /Odtp /RTCsu /ZI
CONST	ENDS
;	COMDAT ??0Thank_you@Define_the_symbol__ATL_MIXED@@QAE@XZ
_TEXT	SEGMENT
_this$ = -8						; size = 4
??0Thank_you@Define_the_symbol__ATL_MIXED@@QAE@XZ PROC	; Define_the_symbol__ATL_MIXED::Thank_you::Thank_you, COMDAT
; _this$ = ecx
  00000	55		 push	 ebp
  00001	8b ec		 mov	 ebp, esp
  00003	81 ec cc 00 00
	00		 sub	 esp, 204		; 000000ccH
  00009	53		 push	 ebx
  0000a	56		 push	 esi
  0000b	57		 push	 edi
  0000c	51		 push	 ecx
  0000d	8d bd 34 ff ff
	ff		 lea	 edi, DWORD PTR [ebp-204]
  00013	b9 33 00 00 00	 mov	 ecx, 51			; 00000033H
  00018	b8 cc cc cc cc	 mov	 eax, -858993460		; ccccccccH
  0001d	f3 ab		 rep stosd
  0001f	59		 pop	 ecx
  00020	89 4d f8	 mov	 DWORD PTR _this$[ebp], ecx
  00023	8b 45 f8	 mov	 eax, DWORD PTR _this$[ebp]
  00026	c7 00 00 00 00
	00		 mov	 DWORD PTR [eax], OFFSET ??_7Thank_you@Define_the_symbol__ATL_MIXED@@6B@
  0002c	8b 45 f8	 mov	 eax, DWORD PTR _this$[ebp]
  0002f	5f		 pop	 edi
  00030	5e		 pop	 esi
  00031	5b		 pop	 ebx
  00032	8b e5		 mov	 esp, ebp
  00034	5d		 pop	 ebp
  00035	c3		 ret	 0
??0Thank_you@Define_the_symbol__ATL_MIXED@@QAE@XZ ENDP	; Define_the_symbol__ATL_MIXED::Thank_you::Thank_you
; Function compile flags: /Odtp /RTCsu /ZI
_TEXT	ENDS
;	COMDAT ?one@Thank_you@Define_the_symbol__ATL_MIXED@@UAEXXZ
_TEXT	SEGMENT
_this$ = -8						; size = 4
?one@Thank_you@Define_the_symbol__ATL_MIXED@@UAEXXZ PROC ; Define_the_symbol__ATL_MIXED::Thank_you::one, COMDAT
; _this$ = ecx

; 80   : 	struct Thank_you { virtual void one(){} };

  00000	55		 push	 ebp
  00001	8b ec		 mov	 ebp, esp
  00003	81 ec cc 00 00
	00		 sub	 esp, 204		; 000000ccH
  00009	53		 push	 ebx
  0000a	56		 push	 esi
  0000b	57		 push	 edi
  0000c	51		 push	 ecx
  0000d	8d bd 34 ff ff
	ff		 lea	 edi, DWORD PTR [ebp-204]
  00013	b9 33 00 00 00	 mov	 ecx, 51			; 00000033H
  00018	b8 cc cc cc cc	 mov	 eax, -858993460		; ccccccccH
  0001d	f3 ab		 rep stosd
  0001f	59		 pop	 ecx
  00020	89 4d f8	 mov	 DWORD PTR _this$[ebp], ecx
  00023	5f		 pop	 edi
  00024	5e		 pop	 esi
  00025	5b		 pop	 ebx
  00026	8b e5		 mov	 esp, ebp
  00028	5d		 pop	 ebp
  00029	c3		 ret	 0
?one@Thank_you@Define_the_symbol__ATL_MIXED@@UAEXXZ ENDP ; Define_the_symbol__ATL_MIXED::Thank_you::one
_TEXT	ENDS
PUBLIC	??0CTraceCategory@ATL@@QAE@PB_WI@Z		; ATL::CTraceCategory::CTraceCategory
PUBLIC	??_C@_1BG@MECINGND@?$AAa?$AAt?$AAl?$AAT?$AAr?$AAa?$AAc?$AAe?$AAU?$AAI?$AA?$AA@ ; `string'
;	COMDAT ??_C@_1BG@MECINGND@?$AAa?$AAt?$AAl?$AAT?$AAr?$AAa?$AAc?$AAe?$AAU?$AAI?$AA?$AA@
; File f:\lvdun\trunk\code\inc\wtl\atlapp.h
CONST	SEGMENT
??_C@_1BG@MECINGND@?$AAa?$AAt?$AAl?$AAT?$AAr?$AAa?$AAc?$AAe?$AAU?$AAI?$AA?$AA@ DB 'a'
	DB	00H, 't', 00H, 'l', 00H, 'T', 00H, 'r', 00H, 'a', 00H, 'c', 00H
	DB	'e', 00H, 'U', 00H, 'I', 00H, 00H, 00H	; `string'
; Function compile flags: /Odtp /RTCsu /ZI
CONST	ENDS
;	COMDAT ??__EatlTraceUI@WTL@@YAXXZ
text$yc	SEGMENT
??__EatlTraceUI@WTL@@YAXXZ PROC				; WTL::`dynamic initializer for 'atlTraceUI'', COMDAT

; 472  :     __declspec(selectany) ATL::CTraceCategory atlTraceUI(_T("atlTraceUI"));

  00000	55		 push	 ebp
  00001	8b ec		 mov	 ebp, esp
  00003	81 ec c0 00 00
	00		 sub	 esp, 192		; 000000c0H
  00009	53		 push	 ebx
  0000a	56		 push	 esi
  0000b	57		 push	 edi
  0000c	8d bd 40 ff ff
	ff		 lea	 edi, DWORD PTR [ebp-192]
  00012	b9 30 00 00 00	 mov	 ecx, 48			; 00000030H
  00017	b8 cc cc cc cc	 mov	 eax, -858993460		; ccccccccH
  0001c	f3 ab		 rep stosd
  0001e	6a 00		 push	 0
  00020	68 00 00 00 00	 push	 OFFSET ??_C@_1BG@MECINGND@?$AAa?$AAt?$AAl?$AAT?$AAr?$AAa?$AAc?$AAe?$AAU?$AAI?$AA?$AA@
  00025	b9 00 00 00 00	 mov	 ecx, OFFSET ?atlTraceUI@WTL@@3VCTraceCategory@ATL@@A ; WTL::atlTraceUI
  0002a	e8 00 00 00 00	 call	 ??0CTraceCategory@ATL@@QAE@PB_WI@Z ; ATL::CTraceCategory::CTraceCategory
  0002f	5f		 pop	 edi
  00030	5e		 pop	 esi
  00031	5b		 pop	 ebx
  00032	81 c4 c0 00 00
	00		 add	 esp, 192		; 000000c0H
  00038	3b ec		 cmp	 ebp, esp
  0003a	e8 00 00 00 00	 call	 __RTC_CheckEsp
  0003f	8b e5		 mov	 esp, ebp
  00041	5d		 pop	 ebp
  00042	c3		 ret	 0
??__EatlTraceUI@WTL@@YAXXZ ENDP				; WTL::`dynamic initializer for 'atlTraceUI''
text$yc	ENDS
PUBLIC	?ChangeCategory@CTrace@ATL@@QAE_NKIW4ATLTRACESTATUS@2@@Z ; ATL::CTrace::ChangeCategory
PUBLIC	?RegisterCategory@CTrace@ATL@@QAEKPB_W@Z	; ATL::CTrace::RegisterCategory
; Function compile flags: /Odtp /RTCsu /ZI
; File c:\program files (x86)\microsoft visual studio 9.0\vc\atlmfc\include\atltrace.h
;	COMDAT ??0CTraceCategory@ATL@@QAE@PB_WI@Z
_TEXT	SEGMENT
_this$ = -8						; size = 4
_pszCategoryName$ = 8					; size = 4
_nStartingLevel$ = 12					; size = 4
??0CTraceCategory@ATL@@QAE@PB_WI@Z PROC			; ATL::CTraceCategory::CTraceCategory, COMDAT
; _this$ = ecx

; 227  : {

  00000	55		 push	 ebp
  00001	8b ec		 mov	 ebp, esp
  00003	81 ec cc 00 00
	00		 sub	 esp, 204		; 000000ccH
  00009	53		 push	 ebx
  0000a	56		 push	 esi
  0000b	57		 push	 edi
  0000c	51		 push	 ecx
  0000d	8d bd 34 ff ff
	ff		 lea	 edi, DWORD PTR [ebp-204]
  00013	b9 33 00 00 00	 mov	 ecx, 51			; 00000033H
  00018	b8 cc cc cc cc	 mov	 eax, -858993460		; ccccccccH
  0001d	f3 ab		 rep stosd
  0001f	59		 pop	 ecx
  00020	89 4d f8	 mov	 DWORD PTR _this$[ebp], ecx
  00023	8b 45 f8	 mov	 eax, DWORD PTR _this$[ebp]
  00026	c7 00 00 00 00
	00		 mov	 DWORD PTR [eax], 0

; 228  : 	m_dwCategory = ATL::CTrace::s_trace.RegisterCategory( pszCategoryName );

  0002c	8b 45 08	 mov	 eax, DWORD PTR _pszCategoryName$[ebp]
  0002f	50		 push	 eax
  00030	b9 00 00 00 00	 mov	 ecx, OFFSET ?s_trace@CTrace@ATL@@2V12@A ; ATL::CTrace::s_trace
  00035	e8 00 00 00 00	 call	 ?RegisterCategory@CTrace@ATL@@QAEKPB_W@Z ; ATL::CTrace::RegisterCategory
  0003a	8b 4d f8	 mov	 ecx, DWORD PTR _this$[ebp]
  0003d	89 01		 mov	 DWORD PTR [ecx], eax

; 229  : 	ATL::CTrace::s_trace.ChangeCategory( m_dwCategory, nStartingLevel, ATLTRACESTATUS_INHERIT);

  0003f	6a 00		 push	 0
  00041	8b 45 0c	 mov	 eax, DWORD PTR _nStartingLevel$[ebp]
  00044	50		 push	 eax
  00045	8b 4d f8	 mov	 ecx, DWORD PTR _this$[ebp]
  00048	8b 11		 mov	 edx, DWORD PTR [ecx]
  0004a	52		 push	 edx
  0004b	b9 00 00 00 00	 mov	 ecx, OFFSET ?s_trace@CTrace@ATL@@2V12@A ; ATL::CTrace::s_trace
  00050	e8 00 00 00 00	 call	 ?ChangeCategory@CTrace@ATL@@QAE_NKIW4ATLTRACESTATUS@2@@Z ; ATL::CTrace::ChangeCategory

; 230  : }

  00055	8b 45 f8	 mov	 eax, DWORD PTR _this$[ebp]
  00058	5f		 pop	 edi
  00059	5e		 pop	 esi
  0005a	5b		 pop	 ebx
  0005b	81 c4 cc 00 00
	00		 add	 esp, 204		; 000000ccH
  00061	3b ec		 cmp	 ebp, esp
  00063	e8 00 00 00 00	 call	 __RTC_CheckEsp
  00068	8b e5		 mov	 esp, ebp
  0006a	5d		 pop	 ebp
  0006b	c2 08 00	 ret	 8
??0CTraceCategory@ATL@@QAE@PB_WI@Z ENDP			; ATL::CTraceCategory::CTraceCategory
_TEXT	ENDS
EXTRN	_AtlTraceModifyCategory@16:PROC
; Function compile flags: /Odtp /RTCsu /ZI
;	COMDAT ?ChangeCategory@CTrace@ATL@@QAE_NKIW4ATLTRACESTATUS@2@@Z
_TEXT	SEGMENT
_this$ = -8						; size = 4
_dwCategory$ = 8					; size = 4
_nLevel$ = 12						; size = 4
_eStatus$ = 16						; size = 4
?ChangeCategory@CTrace@ATL@@QAE_NKIW4ATLTRACESTATUS@2@@Z PROC ; ATL::CTrace::ChangeCategory, COMDAT
; _this$ = ecx

; 84   : 	{

  00000	55		 push	 ebp
  00001	8b ec		 mov	 ebp, esp
  00003	81 ec cc 00 00
	00		 sub	 esp, 204		; 000000ccH
  00009	53		 push	 ebx
  0000a	56		 push	 esi
  0000b	57		 push	 edi
  0000c	51		 push	 ecx
  0000d	8d bd 34 ff ff
	ff		 lea	 edi, DWORD PTR [ebp-204]
  00013	b9 33 00 00 00	 mov	 ecx, 51			; 00000033H
  00018	b8 cc cc cc cc	 mov	 eax, -858993460		; ccccccccH
  0001d	f3 ab		 rep stosd
  0001f	59		 pop	 ecx
  00020	89 4d f8	 mov	 DWORD PTR _this$[ebp], ecx

; 85   : 		return 0 !=
; 86   : 			AtlTraceModifyCategory(0, dwCategory, nLevel, eStatus);

  00023	8b 45 10	 mov	 eax, DWORD PTR _eStatus$[ebp]
  00026	50		 push	 eax
  00027	8b 4d 0c	 mov	 ecx, DWORD PTR _nLevel$[ebp]
  0002a	51		 push	 ecx
  0002b	8b 55 08	 mov	 edx, DWORD PTR _dwCategory$[ebp]
  0002e	52		 push	 edx
  0002f	6a 00		 push	 0
  00031	e8 00 00 00 00	 call	 _AtlTraceModifyCategory@16
  00036	f7 d8		 neg	 eax
  00038	1b c0		 sbb	 eax, eax
  0003a	f7 d8		 neg	 eax

; 87   : 	}

  0003c	5f		 pop	 edi
  0003d	5e		 pop	 esi
  0003e	5b		 pop	 ebx
  0003f	81 c4 cc 00 00
	00		 add	 esp, 204		; 000000ccH
  00045	3b ec		 cmp	 ebp, esp
  00047	e8 00 00 00 00	 call	 __RTC_CheckEsp
  0004c	8b e5		 mov	 esp, ebp
  0004e	5d		 pop	 ebp
  0004f	c2 0c 00	 ret	 12			; 0000000cH
?ChangeCategory@CTrace@ATL@@QAE_NKIW4ATLTRACESTATUS@2@@Z ENDP ; ATL::CTrace::ChangeCategory
_TEXT	ENDS
EXTRN	_AtlTraceRegisterCategoryU@8:PROC
; Function compile flags: /Odtp /RTCsu /ZI
;	COMDAT ?RegisterCategory@CTrace@ATL@@QAEKPB_W@Z
_TEXT	SEGMENT
_this$ = -8						; size = 4
_pszCategory$ = 8					; size = 4
?RegisterCategory@CTrace@ATL@@QAEKPB_W@Z PROC		; ATL::CTrace::RegisterCategory, COMDAT
; _this$ = ecx

; 130  : 		{return(AtlTraceRegisterCategoryU(m_dwModule, pszCategory));}

  00000	55		 push	 ebp
  00001	8b ec		 mov	 ebp, esp
  00003	81 ec cc 00 00
	00		 sub	 esp, 204		; 000000ccH
  00009	53		 push	 ebx
  0000a	56		 push	 esi
  0000b	57		 push	 edi
  0000c	51		 push	 ecx
  0000d	8d bd 34 ff ff
	ff		 lea	 edi, DWORD PTR [ebp-204]
  00013	b9 33 00 00 00	 mov	 ecx, 51			; 00000033H
  00018	b8 cc cc cc cc	 mov	 eax, -858993460		; ccccccccH
  0001d	f3 ab		 rep stosd
  0001f	59		 pop	 ecx
  00020	89 4d f8	 mov	 DWORD PTR _this$[ebp], ecx
  00023	8b 45 08	 mov	 eax, DWORD PTR _pszCategory$[ebp]
  00026	50		 push	 eax
  00027	8b 4d f8	 mov	 ecx, DWORD PTR _this$[ebp]
  0002a	8b 51 04	 mov	 edx, DWORD PTR [ecx+4]
  0002d	52		 push	 edx
  0002e	e8 00 00 00 00	 call	 _AtlTraceRegisterCategoryU@8
  00033	5f		 pop	 edi
  00034	5e		 pop	 esi
  00035	5b		 pop	 ebx
  00036	81 c4 cc 00 00
	00		 add	 esp, 204		; 000000ccH
  0003c	3b ec		 cmp	 ebp, esp
  0003e	e8 00 00 00 00	 call	 __RTC_CheckEsp
  00043	8b e5		 mov	 esp, ebp
  00045	5d		 pop	 ebp
  00046	c2 04 00	 ret	 4
?RegisterCategory@CTrace@ATL@@QAEKPB_W@Z ENDP		; ATL::CTrace::RegisterCategory
_TEXT	ENDS
PUBLIC	?atlTraceUI@WTL@@3VCTraceCategory@ATL@@A	; WTL::atlTraceUI
PUBLIC	?clash@Define_the_symbol__ATL_MIXED@@3UThank_you@1@A ; Define_the_symbol__ATL_MIXED::clash
PUBLIC	?clash@Inconsistent_definition_of_symbol__ATL_MIXED@@3U_Please_define_it_the_same_throughout_your_project@1@A ; Inconsistent_definition_of_symbol__ATL_MIXED::clash
;	COMDAT ?atlTraceUI@WTL@@3VCTraceCategory@ATL@@A
_BSS	SEGMENT
?atlTraceUI@WTL@@3VCTraceCategory@ATL@@A DD 01H DUP (?)	; WTL::atlTraceUI
_BSS	ENDS
;	COMDAT ?clash@Define_the_symbol__ATL_MIXED@@3UThank_you@1@A
_BSS	SEGMENT
?clash@Define_the_symbol__ATL_MIXED@@3UThank_you@1@A DD 01H DUP (?) ; Define_the_symbol__ATL_MIXED::clash
_BSS	ENDS
;	COMDAT ?clash@Inconsistent_definition_of_symbol__ATL_MIXED@@3U_Please_define_it_the_same_throughout_your_project@1@A
_BSS	SEGMENT
?clash@Inconsistent_definition_of_symbol__ATL_MIXED@@3U_Please_define_it_the_same_throughout_your_project@1@A DB 01H DUP (?) ; Inconsistent_definition_of_symbol__ATL_MIXED::clash
_BSS	ENDS
;	COMDAT CRT$XCU
CRT$XCU	SEGMENT
_clash$initializer$ DD FLAT:??__Eclash@Inconsistent_definition_of_symbol__ATL_MIXED@@YAXXZ
CRT$XCU	ENDS
;	COMDAT CRT$XCU
CRT$XCU	SEGMENT
_clash$initializer$ DD FLAT:??__Eclash@Define_the_symbol__ATL_MIXED@@YAXXZ
CRT$XCU	ENDS
;	COMDAT CRT$XCU
CRT$XCU	SEGMENT
_atlTraceUI$initializer$ DD FLAT:??__EatlTraceUI@WTL@@YAXXZ
CRT$XCU	ENDS
END
