; Listing generated by Microsoft (R) Optimizing Compiler Version 15.00.21022.08 

	TITLE	f:\lvdun\trunk\code\GreenShield\DsSetUpHelper\dllmain.cpp
	.686P
	.XMM
	include listing.inc
	.model	flat

INCLUDELIB OLDNAMES

PUBLIC	??_R4Thank_you@Define_the_symbol__ATL_MIXED@@6B@ ; Define_the_symbol__ATL_MIXED::Thank_you::`RTTI Complete Object Locator'
PUBLIC	??_R3Thank_you@Define_the_symbol__ATL_MIXED@@8	; Define_the_symbol__ATL_MIXED::Thank_you::`RTTI Class Hierarchy Descriptor'
PUBLIC	??_R2Thank_you@Define_the_symbol__ATL_MIXED@@8	; Define_the_symbol__ATL_MIXED::Thank_you::`RTTI Base Class Array'
PUBLIC	??_R1A@?0A@EA@Thank_you@Define_the_symbol__ATL_MIXED@@8 ; Define_the_symbol__ATL_MIXED::Thank_you::`RTTI Base Class Descriptor at (0,-1,0,64)'
PUBLIC	??_R0?AUThank_you@Define_the_symbol__ATL_MIXED@@@8 ; Define_the_symbol__ATL_MIXED::Thank_you `RTTI Type Descriptor'
PUBLIC	??_C@_1BA@JIHHIEDE@?$AAT?$AAy?$AAp?$AAe?$AAL?$AAi?$AAb?$AA?$AA@ ; `string'
PUBLIC	??_C@_1BC@EAHCMADO@?$AAS?$AAo?$AAf?$AAt?$AAw?$AAa?$AAr?$AAe?$AA?$AA@ ; `string'
PUBLIC	??_C@_1O@GBFINDKL@?$AAS?$AAY?$AAS?$AAT?$AAE?$AAM?$AA?$AA@ ; `string'
PUBLIC	??_C@_1BC@IBECJAAI@?$AAS?$AAE?$AAC?$AAU?$AAR?$AAI?$AAT?$AAY?$AA?$AA@ ; `string'
PUBLIC	??_C@_17OMAOINJK@?$AAS?$AAA?$AAM?$AA?$AA@	; `string'
PUBLIC	??_C@_19HLLLM@?$AAM?$AAi?$AAm?$AAe?$AA?$AA@	; `string'
PUBLIC	??_C@_1BC@MAICEHGI@?$AAH?$AAa?$AAr?$AAd?$AAw?$AAa?$AAr?$AAe?$AA?$AA@ ; `string'
PUBLIC	??_C@_1BE@EKPAFMCP@?$AAI?$AAn?$AAt?$AAe?$AAr?$AAf?$AAa?$AAc?$AAe?$AA?$AA@ ; `string'
PUBLIC	??_C@_1BC@NKMMNMGL@?$AAF?$AAi?$AAl?$AAe?$AAT?$AAy?$AAp?$AAe?$AA?$AA@ ; `string'
PUBLIC	??_C@_1CK@OEKPKBNA@?$AAC?$AAo?$AAm?$AAp?$AAo?$AAn?$AAe?$AAn?$AAt?$AA?5?$AAC?$AAa?$AAt?$AAe?$AAg?$AAo?$AAr?$AAi?$AAe?$AAs?$AA?$AA@ ; `string'
PUBLIC	??_C@_1O@JDLOHAN@?$AAD?$AAe?$AAl?$AAe?$AAt?$AAe?$AA?$AA@ ; `string'
PUBLIC	??_C@_1BC@GCKHIPE@?$AAN?$AAo?$AAR?$AAe?$AAm?$AAo?$AAv?$AAe?$AA?$AA@ ; `string'
PUBLIC	??_C@_1BI@JFAIJMHL@?$AAF?$AAo?$AAr?$AAc?$AAe?$AAR?$AAe?$AAm?$AAo?$AAv?$AAe?$AA?$AA@ ; `string'
PUBLIC	??_C@_17LLMMEOJD@?$AAV?$AAa?$AAl?$AA?$AA@	; `string'
PUBLIC	??_C@_13OPKGLAFF@?$AAB?$AA?$AA@			; `string'
PUBLIC	??_C@_13MKMNOPIJ@?$AAD?$AA?$AA@			; `string'
PUBLIC	??_C@_13LHMFKAAD@?$AAM?$AA?$AA@			; `string'
PUBLIC	??_C@_13HADIAKP@?$AAS?$AA?$AA@			; `string'
PUBLIC	??_C@_0P@GHFPNOJB@bad?5allocation?$AA@		; `string'
PUBLIC	??1stringdispid@CComTypeInfoHolder@ATL@@QAE@XZ	; ATL::CComTypeInfoHolder::stringdispid::~stringdispid
PUBLIC	??0CAtlException@ATL@@QAE@J@Z			; ATL::CAtlException::CAtlException
PUBLIC	?AtlThrowImpl@ATL@@YGXJ@Z			; ATL::AtlThrowImpl
PUBLIC	??7CComBSTR@ATL@@QBE_NXZ			; ATL::CComBSTR::operator!
PUBLIC	??0CComBSTR@ATL@@QAE@PB_W@Z			; ATL::CComBSTR::CComBSTR
PUBLIC	??1CComBSTR@ATL@@QAE@XZ				; ATL::CComBSTR::~CComBSTR
PUBLIC	?Detach@CComBSTR@ATL@@QAEPA_WXZ			; ATL::CComBSTR::Detach
PUBLIC	?GetMacByGetAdaptersAddresses@@YA_NAAV?$basic_string@_WU?$char_traits@_W@std@@V?$allocator@_W@2@@std@@@Z ; GetMacByGetAdaptersAddresses
PUBLIC	?one@Thank_you@Define_the_symbol__ATL_MIXED@@UAEXXZ ; Define_the_symbol__ATL_MIXED::Thank_you::one
PUBLIC	??0Thank_you@Define_the_symbol__ATL_MIXED@@QAE@XZ ; Define_the_symbol__ATL_MIXED::Thank_you::Thank_you
PUBLIC	??_C@_1DC@PLONAMAJ@?$AA?$CF?$AA0?$AA2?$AAX?$AA?$CF?$AA0?$AA2?$AAX?$AA?$CF?$AA0?$AA2?$AAX?$AA?$CF?$AA0?$AA2?$AAX?$AA?$CF?$AA0?$AA2?$AAX?$AA?$CF?$AA0?$AA2?$AAX?$AA?$AA@ ; `string'
PUBLIC	??_C@_1BK@LBGPFNN@?$AA0?$AA0?$AA0?$AA0?$AA0?$AA0?$AA0?$AA0?$AA0?$AA0?$AA0?$AA0?$AA?$AA@ ; `string'
PUBLIC	??_C@_15BHOFONJE@?$AA?$CF?$AAX?$AA?$AA@		; `string'
PUBLIC	??_R0?AVCAtlException@ATL@@@8			; ATL::CAtlException `RTTI Type Descriptor'
PUBLIC	__CT??_R0?AVCAtlException@ATL@@@84
PUBLIC	__CTA1?AVCAtlException@ATL@@
PUBLIC	__TI1?AVCAtlException@ATL@@
PUBLIC	___pobjMapEntryFirst
PUBLIC	___pobjMapEntryLast
PUBLIC	?m_libid@CAtlModule@ATL@@2U_GUID@@A		; ATL::CAtlModule::m_libid
PUBLIC	??_C@_1M@KANJNLFF@?$AAC?$AAL?$AAS?$AAI?$AAD?$AA?$AA@ ; `string'
PUBLIC	??_C@_1M@EJNEECMJ@?$AAA?$AAp?$AAp?$AAI?$AAD?$AA?$AA@ ; `string'
PUBLIC	?rgszNeverDelete@CRegParser@ATL@@1QBQB_WB	; ATL::CRegParser::rgszNeverDelete
PUBLIC	??_C@_11LOCGONAA@?$AA?$AA@			; `string'
PUBLIC	?rcDefault@CWindow@ATL@@2UtagRECT@@A		; ATL::CWindow::rcDefault
PUBLIC	??_C@_19LLEKKFJM@?$AA?$CG?$AAe?$AAl?$AA?$DN?$AA?$AA@ ; `string'
PUBLIC	??_C@_1BA@HDAKKJKM@?$AA?$CG?$AAe?$AAv?$AA?$DN?$AA?$CF?$AAl?$AAd?$AA?$AA@ ; `string'
PUBLIC	??_C@_1LG@ECBDHOMN@?$AAh?$AAt?$AAt?$AAp?$AA?3?$AA?1?$AA?1?$AAw?$AAw?$AAw?$AA?4?$AAg?$AAo?$AAo?$AAg?$AAl?$AAe?$AA?9?$AAa?$AAn?$AAa?$AAl?$AAy?$AAt?$AAi?$AAc?$AAs?$AA?4?$AAc?$AAo?$AAm?$AA?1@ ; `string'
PUBLIC	??_C@_13FPGAJAPJ@?$AA?2?$AA?$AA@		; `string'
PUBLIC	??_C@_1BI@FCMLLAGN@?$AA?$CF?$AAd?$AA?4?$AA?$CF?$AAd?$AA?4?$AA?$CF?$AAd?$AA?4?$AA?$CF?$AAd?$AA?$AA@ ; `string'
PUBLIC	??_7Thank_you@Define_the_symbol__ATL_MIXED@@6B@	; Define_the_symbol__ATL_MIXED::Thank_you::`vftable'
EXTRN	@__security_check_cookie@4:PROC
EXTRN	??_M@YGXPAXIHP6EX0@Z@Z:PROC			; `eh vector destructor iterator'
EXTRN	??_V@YAXPAX@Z:PROC				; operator delete[]
EXTRN	__imp__CoInitialize@4:PROC
EXTRN	__imp__CoUninitialize@0:PROC
EXTRN	_URLDownloadToCacheFileW@24:PROC
EXTRN	__imp__CreateThread@24:PROC
EXTRN	__imp__CloseHandle@4:PROC
EXTRN	__imp_??0?$basic_string@_WU?$char_traits@_W@std@@V?$allocator@_W@2@@std@@QAE@PB_W@Z:PROC
EXTRN	__imp__SysAllocString@4:PROC
EXTRN	__imp__SysFreeString@4:PROC
EXTRN	??3@YAXPAX@Z:PROC				; operator delete
EXTRN	_GetFileVersionInfoSizeW@8:PROC
EXTRN	_GetFileVersionInfoW@16:PROC
EXTRN	_VerQueryValueW@16:PROC
EXTRN	__imp___swprintf:PROC
EXTRN	??_U@YAPAXI@Z:PROC				; operator new[]
EXTRN	__imp_?_Myptr@?$basic_string@_WU?$char_traits@_W@std@@V?$allocator@_W@2@@std@@IBEPB_WXZ:PROC
EXTRN	__imp_?c_str@?$basic_string@_WU?$char_traits@_W@std@@V?$allocator@_W@2@@std@@QBEPB_WXZ:PROC
EXTRN	__imp__rand:PROC
EXTRN	__imp__srand:PROC
EXTRN	__imp_??0?$basic_string@_WU?$char_traits@_W@std@@V?$allocator@_W@2@@std@@QAE@XZ:PROC
EXTRN	__imp_??1?$basic_string@_WU?$char_traits@_W@std@@V?$allocator@_W@2@@std@@QAE@XZ:PROC
EXTRN	__imp_??4?$basic_string@_WU?$char_traits@_W@std@@V?$allocator@_W@2@@std@@QAEAAV01@ABV01@@Z:PROC
EXTRN	__imp_??Y?$basic_string@_WU?$char_traits@_W@std@@V?$allocator@_W@2@@std@@QAEAAV01@PB_W@Z:PROC
EXTRN	__imp__wsprintfW:PROC
EXTRN	_GetAdaptersAddresses@20:PROC
EXTRN	__imp__free:PROC
EXTRN	__imp__malloc:PROC
EXTRN	__imp_??4?$basic_string@_WU?$char_traits@_W@std@@V?$allocator@_W@2@@std@@QAEAAV01@PB_W@Z:PROC
EXTRN	__imp___time64:PROC
EXTRN	??_7type_info@@6B@:QWORD			; type_info::`vftable'
;	COMDAT ?m_libid@CAtlModule@ATL@@2U_GUID@@A
_BSS	SEGMENT
?m_libid@CAtlModule@ATL@@2U_GUID@@A DB 010H DUP (?)	; ATL::CAtlModule::m_libid
;	COMDAT ??_7Thank_you@Define_the_symbol__ATL_MIXED@@6B@
CONST	SEGMENT
??_7Thank_you@Define_the_symbol__ATL_MIXED@@6B@ DD FLAT:??_R4Thank_you@Define_the_symbol__ATL_MIXED@@6B@ ; Define_the_symbol__ATL_MIXED::Thank_you::`vftable'
	DD	FLAT:?one@Thank_you@Define_the_symbol__ATL_MIXED@@UAEXXZ
CONST	ENDS
;	COMDAT ??_R4Thank_you@Define_the_symbol__ATL_MIXED@@6B@
rdata$r	SEGMENT
??_R4Thank_you@Define_the_symbol__ATL_MIXED@@6B@ DD 00H	; Define_the_symbol__ATL_MIXED::Thank_you::`RTTI Complete Object Locator'
	DD	00H
	DD	00H
	DD	FLAT:??_R0?AUThank_you@Define_the_symbol__ATL_MIXED@@@8
	DD	FLAT:??_R3Thank_you@Define_the_symbol__ATL_MIXED@@8
rdata$r	ENDS
;	COMDAT ??_R3Thank_you@Define_the_symbol__ATL_MIXED@@8
rdata$r	SEGMENT
??_R3Thank_you@Define_the_symbol__ATL_MIXED@@8 DD 00H	; Define_the_symbol__ATL_MIXED::Thank_you::`RTTI Class Hierarchy Descriptor'
	DD	00H
	DD	01H
	DD	FLAT:??_R2Thank_you@Define_the_symbol__ATL_MIXED@@8
rdata$r	ENDS
;	COMDAT ??_R2Thank_you@Define_the_symbol__ATL_MIXED@@8
rdata$r	SEGMENT
??_R2Thank_you@Define_the_symbol__ATL_MIXED@@8 DD FLAT:??_R1A@?0A@EA@Thank_you@Define_the_symbol__ATL_MIXED@@8 ; Define_the_symbol__ATL_MIXED::Thank_you::`RTTI Base Class Array'
rdata$r	ENDS
;	COMDAT ??_R1A@?0A@EA@Thank_you@Define_the_symbol__ATL_MIXED@@8
rdata$r	SEGMENT
??_R1A@?0A@EA@Thank_you@Define_the_symbol__ATL_MIXED@@8 DD FLAT:??_R0?AUThank_you@Define_the_symbol__ATL_MIXED@@@8 ; Define_the_symbol__ATL_MIXED::Thank_you::`RTTI Base Class Descriptor at (0,-1,0,64)'
	DD	00H
	DD	00H
	DD	0ffffffffH
	DD	00H
	DD	040H
	DD	FLAT:??_R3Thank_you@Define_the_symbol__ATL_MIXED@@8
rdata$r	ENDS
;	COMDAT ??_R0?AUThank_you@Define_the_symbol__ATL_MIXED@@@8
_DATA	SEGMENT
??_R0?AUThank_you@Define_the_symbol__ATL_MIXED@@@8 DD FLAT:??_7type_info@@6B@ ; Define_the_symbol__ATL_MIXED::Thank_you `RTTI Type Descriptor'
	DD	00H
	DB	'.?AUThank_you@Define_the_symbol__ATL_MIXED@@', 00H
_DATA	ENDS
;	COMDAT ??_C@_1BI@FCMLLAGN@?$AA?$CF?$AAd?$AA?4?$AA?$CF?$AAd?$AA?4?$AA?$CF?$AAd?$AA?4?$AA?$CF?$AAd?$AA?$AA@
CONST	SEGMENT
??_C@_1BI@FCMLLAGN@?$AA?$CF?$AAd?$AA?4?$AA?$CF?$AAd?$AA?4?$AA?$CF?$AAd?$AA?4?$AA?$CF?$AAd?$AA?$AA@ DB '%'
	DB	00H, 'd', 00H, '.', 00H, '%', 00H, 'd', 00H, '.', 00H, '%', 00H
	DB	'd', 00H, '.', 00H, '%', 00H, 'd', 00H, 00H, 00H ; `string'
CONST	ENDS
;	COMDAT ??_C@_13FPGAJAPJ@?$AA?2?$AA?$AA@
CONST	SEGMENT
??_C@_13FPGAJAPJ@?$AA?2?$AA?$AA@ DB '\', 00H, 00H, 00H	; `string'
CONST	ENDS
;	COMDAT ??_C@_1LG@ECBDHOMN@?$AAh?$AAt?$AAt?$AAp?$AA?3?$AA?1?$AA?1?$AAw?$AAw?$AAw?$AA?4?$AAg?$AAo?$AAo?$AAg?$AAl?$AAe?$AA?9?$AAa?$AAn?$AAa?$AAl?$AAy?$AAt?$AAi?$AAc?$AAs?$AA?4?$AAc?$AAo?$AAm?$AA?1@
CONST	SEGMENT
??_C@_1LG@ECBDHOMN@?$AAh?$AAt?$AAt?$AAp?$AA?3?$AA?1?$AA?1?$AAw?$AAw?$AAw?$AA?4?$AAg?$AAo?$AAo?$AAg?$AAl?$AAe?$AA?9?$AAa?$AAn?$AAa?$AAl?$AAy?$AAt?$AAi?$AAc?$AAs?$AA?4?$AAc?$AAo?$AAm?$AA?1@ DB 'h'
	DB	00H, 't', 00H, 't', 00H, 'p', 00H, ':', 00H, '/', 00H, '/', 00H
	DB	'w', 00H, 'w', 00H, 'w', 00H, '.', 00H, 'g', 00H, 'o', 00H, 'o'
	DB	00H, 'g', 00H, 'l', 00H, 'e', 00H, '-', 00H, 'a', 00H, 'n', 00H
	DB	'a', 00H, 'l', 00H, 'y', 00H, 't', 00H, 'i', 00H, 'c', 00H, 's'
	DB	00H, '.', 00H, 'c', 00H, 'o', 00H, 'm', 00H, '/', 00H, 'c', 00H
	DB	'o', 00H, 'l', 00H, 'l', 00H, 'e', 00H, 'c', 00H, 't', 00H, '?'
	DB	00H, 'v', 00H, '=', 00H, '1', 00H, '&', 00H, 't', 00H, 'i', 00H
	DB	'd', 00H, '=', 00H, 'U', 00H, 'A', 00H, '-', 00H, '5', 00H, '5'
	DB	00H, '1', 00H, '2', 00H, '2', 00H, '7', 00H, '9', 00H, '0', 00H
	DB	'-', 00H, '1', 00H, '&', 00H, 'c', 00H, 'i', 00H, 'd', 00H, '='
	DB	00H, '%', 00H, 's', 00H, '&', 00H, 't', 00H, '=', 00H, 'e', 00H
	DB	'v', 00H, 'e', 00H, 'n', 00H, 't', 00H, '&', 00H, 'e', 00H, 'c'
	DB	00H, '=', 00H, '%', 00H, 's', 00H, '&', 00H, 'e', 00H, 'a', 00H
	DB	'=', 00H, '%', 00H, 's', 00H, '%', 00H, 's', 00H, 00H, 00H ; `string'
CONST	ENDS
;	COMDAT ??_C@_1BA@HDAKKJKM@?$AA?$CG?$AAe?$AAv?$AA?$DN?$AA?$CF?$AAl?$AAd?$AA?$AA@
CONST	SEGMENT
??_C@_1BA@HDAKKJKM@?$AA?$CG?$AAe?$AAv?$AA?$DN?$AA?$CF?$AAl?$AAd?$AA?$AA@ DB '&'
	DB	00H, 'e', 00H, 'v', 00H, '=', 00H, '%', 00H, 'l', 00H, 'd', 00H
	DB	00H, 00H					; `string'
CONST	ENDS
;	COMDAT ??_C@_19LLEKKFJM@?$AA?$CG?$AAe?$AAl?$AA?$DN?$AA?$AA@
CONST	SEGMENT
??_C@_19LLEKKFJM@?$AA?$CG?$AAe?$AAl?$AA?$DN?$AA?$AA@ DB '&', 00H, 'e', 00H
	DB	'l', 00H, '=', 00H, 00H, 00H			; `string'
CONST	ENDS
;	COMDAT ?rcDefault@CWindow@ATL@@2UtagRECT@@A
_DATA	SEGMENT
?rcDefault@CWindow@ATL@@2UtagRECT@@A DD 080000000H	; ATL::CWindow::rcDefault
	DD	080000000H
	DD	00H
	DD	00H
_DATA	ENDS
;	COMDAT ??_C@_11LOCGONAA@?$AA?$AA@
CONST	SEGMENT
??_C@_11LOCGONAA@?$AA?$AA@ DB 00H, 00H			; `string'
CONST	ENDS
;	COMDAT ?rgszNeverDelete@CRegParser@ATL@@1QBQB_WB
CONST	SEGMENT
?rgszNeverDelete@CRegParser@ATL@@1QBQB_WB DD FLAT:??_C@_1M@EJNEECMJ@?$AAA?$AAp?$AAp?$AAI?$AAD?$AA?$AA@ ; ATL::CRegParser::rgszNeverDelete
	DD	FLAT:??_C@_1M@KANJNLFF@?$AAC?$AAL?$AAS?$AAI?$AAD?$AA?$AA@
	DD	FLAT:??_C@_1CK@OEKPKBNA@?$AAC?$AAo?$AAm?$AAp?$AAo?$AAn?$AAe?$AAn?$AAt?$AA?5?$AAC?$AAa?$AAt?$AAe?$AAg?$AAo?$AAr?$AAi?$AAe?$AAs?$AA?$AA@
	DD	FLAT:??_C@_1BC@NKMMNMGL@?$AAF?$AAi?$AAl?$AAe?$AAT?$AAy?$AAp?$AAe?$AA?$AA@
	DD	FLAT:??_C@_1BE@EKPAFMCP@?$AAI?$AAn?$AAt?$AAe?$AAr?$AAf?$AAa?$AAc?$AAe?$AA?$AA@
	DD	FLAT:??_C@_1BC@MAICEHGI@?$AAH?$AAa?$AAr?$AAd?$AAw?$AAa?$AAr?$AAe?$AA?$AA@
	DD	FLAT:??_C@_19HLLLM@?$AAM?$AAi?$AAm?$AAe?$AA?$AA@
	DD	FLAT:??_C@_17OMAOINJK@?$AAS?$AAA?$AAM?$AA?$AA@
	DD	FLAT:??_C@_1BC@IBECJAAI@?$AAS?$AAE?$AAC?$AAU?$AAR?$AAI?$AAT?$AAY?$AA?$AA@
	DD	FLAT:??_C@_1O@GBFINDKL@?$AAS?$AAY?$AAS?$AAT?$AAE?$AAM?$AA?$AA@
	DD	FLAT:??_C@_1BC@EAHCMADO@?$AAS?$AAo?$AAf?$AAt?$AAw?$AAa?$AAr?$AAe?$AA?$AA@
	DD	FLAT:??_C@_1BA@JIHHIEDE@?$AAT?$AAy?$AAp?$AAe?$AAL?$AAi?$AAb?$AA?$AA@
CONST	ENDS
;	COMDAT ??_C@_1BA@JIHHIEDE@?$AAT?$AAy?$AAp?$AAe?$AAL?$AAi?$AAb?$AA?$AA@
CONST	SEGMENT
??_C@_1BA@JIHHIEDE@?$AAT?$AAy?$AAp?$AAe?$AAL?$AAi?$AAb?$AA?$AA@ DB 'T', 00H
	DB	'y', 00H, 'p', 00H, 'e', 00H, 'L', 00H, 'i', 00H, 'b', 00H, 00H
	DB	00H						; `string'
CONST	ENDS
;	COMDAT ??_C@_1BC@EAHCMADO@?$AAS?$AAo?$AAf?$AAt?$AAw?$AAa?$AAr?$AAe?$AA?$AA@
CONST	SEGMENT
??_C@_1BC@EAHCMADO@?$AAS?$AAo?$AAf?$AAt?$AAw?$AAa?$AAr?$AAe?$AA?$AA@ DB 'S'
	DB	00H, 'o', 00H, 'f', 00H, 't', 00H, 'w', 00H, 'a', 00H, 'r', 00H
	DB	'e', 00H, 00H, 00H				; `string'
CONST	ENDS
;	COMDAT ??_C@_1O@GBFINDKL@?$AAS?$AAY?$AAS?$AAT?$AAE?$AAM?$AA?$AA@
CONST	SEGMENT
??_C@_1O@GBFINDKL@?$AAS?$AAY?$AAS?$AAT?$AAE?$AAM?$AA?$AA@ DB 'S', 00H, 'Y'
	DB	00H, 'S', 00H, 'T', 00H, 'E', 00H, 'M', 00H, 00H, 00H ; `string'
CONST	ENDS
;	COMDAT ??_C@_1BC@IBECJAAI@?$AAS?$AAE?$AAC?$AAU?$AAR?$AAI?$AAT?$AAY?$AA?$AA@
CONST	SEGMENT
??_C@_1BC@IBECJAAI@?$AAS?$AAE?$AAC?$AAU?$AAR?$AAI?$AAT?$AAY?$AA?$AA@ DB 'S'
	DB	00H, 'E', 00H, 'C', 00H, 'U', 00H, 'R', 00H, 'I', 00H, 'T', 00H
	DB	'Y', 00H, 00H, 00H				; `string'
CONST	ENDS
;	COMDAT ??_C@_17OMAOINJK@?$AAS?$AAA?$AAM?$AA?$AA@
CONST	SEGMENT
??_C@_17OMAOINJK@?$AAS?$AAA?$AAM?$AA?$AA@ DB 'S', 00H, 'A', 00H, 'M', 00H
	DB	00H, 00H					; `string'
CONST	ENDS
;	COMDAT ??_C@_19HLLLM@?$AAM?$AAi?$AAm?$AAe?$AA?$AA@
CONST	SEGMENT
??_C@_19HLLLM@?$AAM?$AAi?$AAm?$AAe?$AA?$AA@ DB 'M', 00H, 'i', 00H, 'm', 00H
	DB	'e', 00H, 00H, 00H				; `string'
CONST	ENDS
;	COMDAT ??_C@_1BC@MAICEHGI@?$AAH?$AAa?$AAr?$AAd?$AAw?$AAa?$AAr?$AAe?$AA?$AA@
CONST	SEGMENT
??_C@_1BC@MAICEHGI@?$AAH?$AAa?$AAr?$AAd?$AAw?$AAa?$AAr?$AAe?$AA?$AA@ DB 'H'
	DB	00H, 'a', 00H, 'r', 00H, 'd', 00H, 'w', 00H, 'a', 00H, 'r', 00H
	DB	'e', 00H, 00H, 00H				; `string'
CONST	ENDS
;	COMDAT ??_C@_1BE@EKPAFMCP@?$AAI?$AAn?$AAt?$AAe?$AAr?$AAf?$AAa?$AAc?$AAe?$AA?$AA@
CONST	SEGMENT
??_C@_1BE@EKPAFMCP@?$AAI?$AAn?$AAt?$AAe?$AAr?$AAf?$AAa?$AAc?$AAe?$AA?$AA@ DB 'I'
	DB	00H, 'n', 00H, 't', 00H, 'e', 00H, 'r', 00H, 'f', 00H, 'a', 00H
	DB	'c', 00H, 'e', 00H, 00H, 00H			; `string'
CONST	ENDS
;	COMDAT ??_C@_1BC@NKMMNMGL@?$AAF?$AAi?$AAl?$AAe?$AAT?$AAy?$AAp?$AAe?$AA?$AA@
CONST	SEGMENT
??_C@_1BC@NKMMNMGL@?$AAF?$AAi?$AAl?$AAe?$AAT?$AAy?$AAp?$AAe?$AA?$AA@ DB 'F'
	DB	00H, 'i', 00H, 'l', 00H, 'e', 00H, 'T', 00H, 'y', 00H, 'p', 00H
	DB	'e', 00H, 00H, 00H				; `string'
CONST	ENDS
;	COMDAT ??_C@_1CK@OEKPKBNA@?$AAC?$AAo?$AAm?$AAp?$AAo?$AAn?$AAe?$AAn?$AAt?$AA?5?$AAC?$AAa?$AAt?$AAe?$AAg?$AAo?$AAr?$AAi?$AAe?$AAs?$AA?$AA@
CONST	SEGMENT
??_C@_1CK@OEKPKBNA@?$AAC?$AAo?$AAm?$AAp?$AAo?$AAn?$AAe?$AAn?$AAt?$AA?5?$AAC?$AAa?$AAt?$AAe?$AAg?$AAo?$AAr?$AAi?$AAe?$AAs?$AA?$AA@ DB 'C'
	DB	00H, 'o', 00H, 'm', 00H, 'p', 00H, 'o', 00H, 'n', 00H, 'e', 00H
	DB	'n', 00H, 't', 00H, ' ', 00H, 'C', 00H, 'a', 00H, 't', 00H, 'e'
	DB	00H, 'g', 00H, 'o', 00H, 'r', 00H, 'i', 00H, 'e', 00H, 's', 00H
	DB	00H, 00H					; `string'
CONST	ENDS
;	COMDAT ??_C@_1O@JDLOHAN@?$AAD?$AAe?$AAl?$AAe?$AAt?$AAe?$AA?$AA@
CONST	SEGMENT
??_C@_1O@JDLOHAN@?$AAD?$AAe?$AAl?$AAe?$AAt?$AAe?$AA?$AA@ DB 'D', 00H, 'e', 00H
	DB	'l', 00H, 'e', 00H, 't', 00H, 'e', 00H, 00H, 00H ; `string'
CONST	ENDS
;	COMDAT ??_C@_1BC@GCKHIPE@?$AAN?$AAo?$AAR?$AAe?$AAm?$AAo?$AAv?$AAe?$AA?$AA@
CONST	SEGMENT
??_C@_1BC@GCKHIPE@?$AAN?$AAo?$AAR?$AAe?$AAm?$AAo?$AAv?$AAe?$AA?$AA@ DB 'N'
	DB	00H, 'o', 00H, 'R', 00H, 'e', 00H, 'm', 00H, 'o', 00H, 'v', 00H
	DB	'e', 00H, 00H, 00H				; `string'
CONST	ENDS
;	COMDAT ??_C@_1BI@JFAIJMHL@?$AAF?$AAo?$AAr?$AAc?$AAe?$AAR?$AAe?$AAm?$AAo?$AAv?$AAe?$AA?$AA@
CONST	SEGMENT
??_C@_1BI@JFAIJMHL@?$AAF?$AAo?$AAr?$AAc?$AAe?$AAR?$AAe?$AAm?$AAo?$AAv?$AAe?$AA?$AA@ DB 'F'
	DB	00H, 'o', 00H, 'r', 00H, 'c', 00H, 'e', 00H, 'R', 00H, 'e', 00H
	DB	'm', 00H, 'o', 00H, 'v', 00H, 'e', 00H, 00H, 00H ; `string'
CONST	ENDS
;	COMDAT ??_C@_17LLMMEOJD@?$AAV?$AAa?$AAl?$AA?$AA@
CONST	SEGMENT
??_C@_17LLMMEOJD@?$AAV?$AAa?$AAl?$AA?$AA@ DB 'V', 00H, 'a', 00H, 'l', 00H
	DB	00H, 00H					; `string'
CONST	ENDS
;	COMDAT ??_C@_13OPKGLAFF@?$AAB?$AA?$AA@
CONST	SEGMENT
??_C@_13OPKGLAFF@?$AAB?$AA?$AA@ DB 'B', 00H, 00H, 00H	; `string'
CONST	ENDS
;	COMDAT ??_C@_13MKMNOPIJ@?$AAD?$AA?$AA@
CONST	SEGMENT
??_C@_13MKMNOPIJ@?$AAD?$AA?$AA@ DB 'D', 00H, 00H, 00H	; `string'
CONST	ENDS
;	COMDAT ??_C@_13LHMFKAAD@?$AAM?$AA?$AA@
CONST	SEGMENT
??_C@_13LHMFKAAD@?$AAM?$AA?$AA@ DB 'M', 00H, 00H, 00H	; `string'
CONST	ENDS
;	COMDAT ??_C@_13HADIAKP@?$AAS?$AA?$AA@
CONST	SEGMENT
??_C@_13HADIAKP@?$AAS?$AA?$AA@ DB 'S', 00H, 00H, 00H	; `string'
CONST	ENDS
;	COMDAT ??_C@_1M@EJNEECMJ@?$AAA?$AAp?$AAp?$AAI?$AAD?$AA?$AA@
CONST	SEGMENT
??_C@_1M@EJNEECMJ@?$AAA?$AAp?$AAp?$AAI?$AAD?$AA?$AA@ DB 'A', 00H, 'p', 00H
	DB	'p', 00H, 'I', 00H, 'D', 00H, 00H, 00H	; `string'
CONST	ENDS
;	COMDAT ??_C@_1M@KANJNLFF@?$AAC?$AAL?$AAS?$AAI?$AAD?$AA?$AA@
CONST	SEGMENT
??_C@_1M@KANJNLFF@?$AAC?$AAL?$AAS?$AAI?$AAD?$AA?$AA@ DB 'C', 00H, 'L', 00H
	DB	'S', 00H, 'I', 00H, 'D', 00H, 00H, 00H	; `string'
CONST	ENDS
;	COMDAT ___pobjMapEntryLast
ATL$__z	SEGMENT
___pobjMapEntryLast DD 00H
ATL$__z	ENDS
;	COMDAT ___pobjMapEntryFirst
ATL$__a	SEGMENT
___pobjMapEntryFirst DD 00H
ATL$__a	ENDS
;	COMDAT __TI1?AVCAtlException@ATL@@
xdata$x	SEGMENT
__TI1?AVCAtlException@ATL@@ DD 00H
	DD	00H
	DD	00H
	DD	FLAT:__CTA1?AVCAtlException@ATL@@
xdata$x	ENDS
;	COMDAT __CTA1?AVCAtlException@ATL@@
xdata$x	SEGMENT
__CTA1?AVCAtlException@ATL@@ DD 01H
	DD	FLAT:__CT??_R0?AVCAtlException@ATL@@@84
xdata$x	ENDS
;	COMDAT __CT??_R0?AVCAtlException@ATL@@@84
xdata$x	SEGMENT
__CT??_R0?AVCAtlException@ATL@@@84 DD 00H
	DD	FLAT:??_R0?AVCAtlException@ATL@@@8
	DD	00H
	DD	0ffffffffH
	ORG $+4
	DD	04H
	DD	00H
xdata$x	ENDS
;	COMDAT ??_R0?AVCAtlException@ATL@@@8
_DATA	SEGMENT
??_R0?AVCAtlException@ATL@@@8 DD FLAT:??_7type_info@@6B@ ; ATL::CAtlException `RTTI Type Descriptor'
	DD	00H
	DB	'.?AVCAtlException@ATL@@', 00H
_DATA	ENDS
;	COMDAT ??_C@_15BHOFONJE@?$AA?$CF?$AAX?$AA?$AA@
CONST	SEGMENT
??_C@_15BHOFONJE@?$AA?$CF?$AAX?$AA?$AA@ DB '%', 00H, 'X', 00H, 00H, 00H ; `string'
CONST	ENDS
;	COMDAT ??_C@_1BK@LBGPFNN@?$AA0?$AA0?$AA0?$AA0?$AA0?$AA0?$AA0?$AA0?$AA0?$AA0?$AA0?$AA0?$AA?$AA@
CONST	SEGMENT
??_C@_1BK@LBGPFNN@?$AA0?$AA0?$AA0?$AA0?$AA0?$AA0?$AA0?$AA0?$AA0?$AA0?$AA0?$AA0?$AA?$AA@ DB '0'
	DB	00H, '0', 00H, '0', 00H, '0', 00H, '0', 00H, '0', 00H, '0', 00H
	DB	'0', 00H, '0', 00H, '0', 00H, '0', 00H, '0', 00H, 00H, 00H ; `string'
CONST	ENDS
;	COMDAT ??_C@_1DC@PLONAMAJ@?$AA?$CF?$AA0?$AA2?$AAX?$AA?$CF?$AA0?$AA2?$AAX?$AA?$CF?$AA0?$AA2?$AAX?$AA?$CF?$AA0?$AA2?$AAX?$AA?$CF?$AA0?$AA2?$AAX?$AA?$CF?$AA0?$AA2?$AAX?$AA?$AA@
CONST	SEGMENT
??_C@_1DC@PLONAMAJ@?$AA?$CF?$AA0?$AA2?$AAX?$AA?$CF?$AA0?$AA2?$AAX?$AA?$CF?$AA0?$AA2?$AAX?$AA?$CF?$AA0?$AA2?$AAX?$AA?$CF?$AA0?$AA2?$AAX?$AA?$CF?$AA0?$AA2?$AAX?$AA?$AA@ DB '%'
	DB	00H, '0', 00H, '2', 00H, 'X', 00H, '%', 00H, '0', 00H, '2', 00H
	DB	'X', 00H, '%', 00H, '0', 00H, '2', 00H, 'X', 00H, '%', 00H, '0'
	DB	00H, '2', 00H, 'X', 00H, '%', 00H, '0', 00H, '2', 00H, 'X', 00H
	DB	'%', 00H, '0', 00H, '2', 00H, 'X', 00H, 00H, 00H ; `string'
__bad_alloc_Message DD FLAT:??_C@_0P@GHFPNOJB@bad?5allocation?$AA@
;	COMDAT ??_C@_0P@GHFPNOJB@bad?5allocation?$AA@
CONST	SEGMENT
??_C@_0P@GHFPNOJB@bad?5allocation?$AA@ DB 'bad allocation', 00H ; `string'
CONST	ENDS
PUBLIC	_NsisTSLOG
; Function compile flags: /Ogtpy
; File f:\lvdun\trunk\code\greenshield\dssetuphelper\dllmain.cpp
;	COMDAT _NsisTSLOG
_TEXT	SEGMENT
_pszInfo$ = 8						; size = 4
_NsisTSLOG PROC						; COMDAT

; 121  : 	if(pszInfo == NULL)
; 122  : 		return;
; 123  : 	TSDEBUG4CXX("<NSIS> " << pszInfo);
; 124  : }

  00000	c3		 ret	 0
_NsisTSLOG ENDP
_TEXT	ENDS
PUBLIC	_GetFileVersionString
; Function compile flags: /Ogtpy
;	COMDAT _GetFileVersionString
_TEXT	SEGMENT
_uLength$130099 = -8					; size = 4
_pvi$130098 = -4					; size = 4
_dwHandle$ = 8						; size = 4
_pszFileName$ = 8					; size = 4
_pszVersionString$ = 12					; size = 4
_GetFileVersionString PROC				; COMDAT

; 85   : {

  00000	83 ec 08	 sub	 esp, 8
  00003	55		 push	 ebp

; 86   : 	if(pszFileName == NULL || pszVersionString == NULL)

  00004	8b 6c 24 10	 mov	 ebp, DWORD PTR _pszFileName$[esp+8]
  00008	85 ed		 test	 ebp, ebp
  0000a	0f 84 b0 00 00
	00		 je	 $LN4@GetFileVer
  00010	83 7c 24 14 00	 cmp	 DWORD PTR _pszVersionString$[esp+8], 0
  00015	0f 84 a5 00 00
	00		 je	 $LN4@GetFileVer
  0001b	56		 push	 esi

; 87   : 		return ;
; 88   : 
; 89   : 	BOOL bResult = FALSE;
; 90   : 	DWORD dwHandle = 0;
; 91   : 	DWORD dwSize = ::GetFileVersionInfoSize(pszFileName, &dwHandle);

  0001c	8d 44 24 14	 lea	 eax, DWORD PTR _dwHandle$[esp+12]
  00020	50		 push	 eax
  00021	55		 push	 ebp
  00022	c7 44 24 1c 00
	00 00 00	 mov	 DWORD PTR _dwHandle$[esp+20], 0
  0002a	e8 00 00 00 00	 call	 _GetFileVersionInfoSizeW@8
  0002f	8b f0		 mov	 esi, eax

; 92   : 	if(dwSize > 0)

  00031	85 f6		 test	 esi, esi
  00033	0f 86 86 00 00
	00		 jbe	 $LN8@GetFileVer

; 93   : 	{
; 94   : 		TCHAR * pVersionInfo = new TCHAR[dwSize+1];

  00039	33 c9		 xor	 ecx, ecx
  0003b	8d 46 01	 lea	 eax, DWORD PTR [esi+1]
  0003e	ba 02 00 00 00	 mov	 edx, 2
  00043	f7 e2		 mul	 edx
  00045	0f 90 c1	 seto	 cl
  00048	57		 push	 edi
  00049	f7 d9		 neg	 ecx
  0004b	0b c8		 or	 ecx, eax
  0004d	51		 push	 ecx
  0004e	e8 00 00 00 00	 call	 ??_U@YAPAXI@Z		; operator new[]
  00053	83 c4 04	 add	 esp, 4
  00056	8b f8		 mov	 edi, eax

; 95   : 		if(::GetFileVersionInfo(pszFileName, dwHandle, dwSize, pVersionInfo))

  00058	8b 44 24 18	 mov	 eax, DWORD PTR _dwHandle$[esp+16]
  0005c	57		 push	 edi
  0005d	56		 push	 esi
  0005e	50		 push	 eax
  0005f	55		 push	 ebp
  00060	e8 00 00 00 00	 call	 _GetFileVersionInfoW@16
  00065	85 c0		 test	 eax, eax
  00067	74 4c		 je	 SHORT $LN1@GetFileVer

; 96   : 		{
; 97   : 			VS_FIXEDFILEINFO * pvi;
; 98   : 			UINT uLength = 0;
; 99   : 			if(::VerQueryValue(pVersionInfo, _T("\\"), (void **)&pvi, &uLength))

  00069	8d 4c 24 0c	 lea	 ecx, DWORD PTR _uLength$130099[esp+20]
  0006d	51		 push	 ecx
  0006e	8d 54 24 14	 lea	 edx, DWORD PTR _pvi$130098[esp+24]
  00072	52		 push	 edx
  00073	68 00 00 00 00	 push	 OFFSET ??_C@_13FPGAJAPJ@?$AA?2?$AA?$AA@
  00078	57		 push	 edi
  00079	c7 44 24 1c 00
	00 00 00	 mov	 DWORD PTR _uLength$130099[esp+36], 0
  00081	e8 00 00 00 00	 call	 _VerQueryValueW@16
  00086	85 c0		 test	 eax, eax
  00088	74 2b		 je	 SHORT $LN1@GetFileVer

; 100  : 			{
; 101  : 				_stprintf(pszVersionString, _T("%d.%d.%d.%d"),
; 102  : 					HIWORD(pvi->dwFileVersionMS), LOWORD(pvi->dwFileVersionMS),
; 103  : 					HIWORD(pvi->dwFileVersionLS), LOWORD(pvi->dwFileVersionLS));

  0008a	8b 44 24 10	 mov	 eax, DWORD PTR _pvi$130098[esp+20]
  0008e	0f b7 48 0c	 movzx	 ecx, WORD PTR [eax+12]
  00092	0f b7 50 0e	 movzx	 edx, WORD PTR [eax+14]
  00096	51		 push	 ecx
  00097	0f b7 48 08	 movzx	 ecx, WORD PTR [eax+8]
  0009b	52		 push	 edx
  0009c	0f b7 50 0a	 movzx	 edx, WORD PTR [eax+10]
  000a0	8b 44 24 24	 mov	 eax, DWORD PTR _pszVersionString$[esp+24]
  000a4	51		 push	 ecx
  000a5	52		 push	 edx
  000a6	68 00 00 00 00	 push	 OFFSET ??_C@_1BI@FCMLLAGN@?$AA?$CF?$AAd?$AA?4?$AA?$CF?$AAd?$AA?4?$AA?$CF?$AAd?$AA?4?$AA?$CF?$AAd?$AA?$AA@
  000ab	50		 push	 eax
  000ac	ff 15 00 00 00
	00		 call	 DWORD PTR __imp___swprintf
  000b2	83 c4 18	 add	 esp, 24			; 00000018H
$LN1@GetFileVer:

; 104  : 				bResult = TRUE;
; 105  : 			}
; 106  : 		}
; 107  : 		delete pVersionInfo;

  000b5	57		 push	 edi
  000b6	e8 00 00 00 00	 call	 ??3@YAXPAX@Z		; operator delete
  000bb	83 c4 04	 add	 esp, 4
  000be	5f		 pop	 edi
$LN8@GetFileVer:
  000bf	5e		 pop	 esi
$LN4@GetFileVer:
  000c0	5d		 pop	 ebp

; 108  : 	}
; 109  : }

  000c1	83 c4 08	 add	 esp, 8
  000c4	c3		 ret	 0
_GetFileVersionString ENDP
_TEXT	ENDS
PUBLIC	__$ArrayPad$
PUBLIC	?SendHttpStatThread@@YGKPAX@Z			; SendHttpStatThread
EXTRN	___security_cookie:DWORD
EXTRN	__except_handler4:PROC
EXTRN	_memset:PROC
;	COMDAT xdata$x
xdata$x	SEGMENT
__sehtable$?SendHttpStatThread@@YGKPAX@Z DD 0ffffffe4H
	DD	00H
	DD	0fffffbc0H
	DD	00H
	DD	0fffffffeH
	DD	FLAT:$LN6@SendHttpSt
	DD	FLAT:$LN7@SendHttpSt
; Function compile flags: /Ogtpy
xdata$x	ENDS
;	COMDAT ?SendHttpStatThread@@YGKPAX@Z
_TEXT	SEGMENT
_hr$ = -1072						; size = 4
_szBuffer$ = -1068					; size = 520
_szUrl$ = -548						; size = 520
__$ArrayPad$ = -28					; size = 4
__$SEHRec$ = -24					; size = 24
_pParameter$ = 8					; size = 4
?SendHttpStatThread@@YGKPAX@Z PROC			; SendHttpStatThread, COMDAT

; 31   : {

  00000	55		 push	 ebp
  00001	8b ec		 mov	 ebp, esp
  00003	6a fe		 push	 -2			; fffffffeH
  00005	68 00 00 00 00	 push	 OFFSET __sehtable$?SendHttpStatThread@@YGKPAX@Z
  0000a	68 00 00 00 00	 push	 OFFSET __except_handler4
  0000f	64 a1 00 00 00
	00		 mov	 eax, DWORD PTR fs:0
  00015	50		 push	 eax
  00016	81 ec 20 04 00
	00		 sub	 esp, 1056		; 00000420H
  0001c	a1 00 00 00 00	 mov	 eax, DWORD PTR ___security_cookie
  00021	31 45 f8	 xor	 DWORD PTR __$SEHRec$[ebp+16], eax
  00024	33 c5		 xor	 eax, ebp
  00026	89 45 e4	 mov	 DWORD PTR __$ArrayPad$[ebp], eax
  00029	53		 push	 ebx
  0002a	56		 push	 esi
  0002b	57		 push	 edi
  0002c	50		 push	 eax
  0002d	8d 45 f0	 lea	 eax, DWORD PTR __$SEHRec$[ebp+8]
  00030	64 a3 00 00 00
	00		 mov	 DWORD PTR fs:0, eax
  00036	89 65 e8	 mov	 DWORD PTR __$SEHRec$[ebp], esp

; 32   : 	TSAUTO();
; 33   : 	TCHAR szUrl[MAX_PATH] = {0};

  00039	33 c0		 xor	 eax, eax
  0003b	66 89 85 dc fd
	ff ff		 mov	 WORD PTR _szUrl$[ebp], ax
  00042	68 06 02 00 00	 push	 518			; 00000206H
  00047	50		 push	 eax
  00048	8d 8d de fd ff
	ff		 lea	 ecx, DWORD PTR _szUrl$[ebp+2]
  0004e	51		 push	 ecx
  0004f	e8 00 00 00 00	 call	 _memset
  00054	83 c4 0c	 add	 esp, 12			; 0000000cH

; 34   : 	_tcscpy(szUrl,(LPCWSTR)pParameter);

  00057	8b 45 08	 mov	 eax, DWORD PTR _pParameter$[ebp]
  0005a	8d 95 dc fd ff
	ff		 lea	 edx, DWORD PTR _szUrl$[ebp]
  00060	2b d0		 sub	 edx, eax
$LL4@SendHttpSt:
  00062	0f b7 08	 movzx	 ecx, WORD PTR [eax]
  00065	66 89 0c 02	 mov	 WORD PTR [edx+eax], cx
  00069	83 c0 02	 add	 eax, 2
  0006c	66 85 c9	 test	 cx, cx
  0006f	75 f1		 jne	 SHORT $LL4@SendHttpSt

; 35   : 
; 36   : 	TCHAR szBuffer[MAX_PATH] = {0};

  00071	33 d2		 xor	 edx, edx
  00073	66 89 95 d4 fb
	ff ff		 mov	 WORD PTR _szBuffer$[ebp], dx
  0007a	68 06 02 00 00	 push	 518			; 00000206H
  0007f	52		 push	 edx
  00080	8d 85 d6 fb ff
	ff		 lea	 eax, DWORD PTR _szBuffer$[ebp+2]
  00086	50		 push	 eax
  00087	e8 00 00 00 00	 call	 _memset
  0008c	83 c4 0c	 add	 esp, 12			; 0000000cH

; 37   : 	::CoInitialize(NULL);

  0008f	6a 00		 push	 0
  00091	ff 15 00 00 00
	00		 call	 DWORD PTR __imp__CoInitialize@4

; 38   : 	HRESULT hr = E_FAIL;

  00097	c7 85 d0 fb ff
	ff 05 40 00 80	 mov	 DWORD PTR _hr$[ebp], -2147467259 ; 80004005H

; 39   : 	__try

  000a1	c7 45 fc 00 00
	00 00		 mov	 DWORD PTR __$SEHRec$[ebp+20], 0

; 40   : 	{
; 41   : 		hr = ::URLDownloadToCacheFile(NULL, szUrl, szBuffer, MAX_PATH, 0, NULL);

  000a8	6a 00		 push	 0
  000aa	6a 00		 push	 0
  000ac	68 04 01 00 00	 push	 260			; 00000104H
  000b1	8d 8d d4 fb ff
	ff		 lea	 ecx, DWORD PTR _szBuffer$[ebp]
  000b7	51		 push	 ecx
  000b8	8d 95 dc fd ff
	ff		 lea	 edx, DWORD PTR _szUrl$[ebp]
  000be	52		 push	 edx
  000bf	6a 00		 push	 0
  000c1	e8 00 00 00 00	 call	 _URLDownloadToCacheFileW@24
  000c6	89 85 d0 fb ff
	ff		 mov	 DWORD PTR _hr$[ebp], eax

; 42   : 	}

  000cc	eb 09		 jmp	 SHORT $LN12@SendHttpSt
$LN6@SendHttpSt:
$LN13@SendHttpSt:

; 43   : 	__except(EXCEPTION_EXECUTE_HANDLER)

  000ce	b8 01 00 00 00	 mov	 eax, 1
$LN11@SendHttpSt:
$LN8@SendHttpSt:
  000d3	c3		 ret	 0
$LN7@SendHttpSt:
  000d4	8b 65 e8	 mov	 esp, DWORD PTR __$SEHRec$[ebp]
$LN12@SendHttpSt:

; 44   : 	{
; 45   : 		TSDEBUG4CXX("URLDownloadToCacheFile Exception !!!");
; 46   : 	}

  000d7	c7 45 fc fe ff
	ff ff		 mov	 DWORD PTR __$SEHRec$[ebp+20], -2 ; fffffffeH

; 47   : 	::CoUninitialize();

  000de	ff 15 00 00 00
	00		 call	 DWORD PTR __imp__CoUninitialize@0

; 48   : 
; 49   : 	return SUCCEEDED(hr)?ERROR_SUCCESS:0xFF;

  000e4	33 c0		 xor	 eax, eax
  000e6	39 85 d0 fb ff
	ff		 cmp	 DWORD PTR _hr$[ebp], eax
  000ec	0f 9d c0	 setge	 al
  000ef	48		 dec	 eax
  000f0	25 ff 00 00 00	 and	 eax, 255		; 000000ffH

; 50   : }

  000f5	8b 4d f0	 mov	 ecx, DWORD PTR __$SEHRec$[ebp+8]
  000f8	64 89 0d 00 00
	00 00		 mov	 DWORD PTR fs:0, ecx
  000ff	59		 pop	 ecx
  00100	5f		 pop	 edi
  00101	5e		 pop	 esi
  00102	5b		 pop	 ebx
  00103	8b 4d e4	 mov	 ecx, DWORD PTR __$ArrayPad$[ebp]
  00106	33 cd		 xor	 ecx, ebp
  00108	e8 00 00 00 00	 call	 @__security_check_cookie@4
  0010d	8b e5		 mov	 esp, ebp
  0010f	5d		 pop	 ebp
  00110	c2 04 00	 ret	 4
?SendHttpStatThread@@YGKPAX@Z ENDP			; SendHttpStatThread
_TEXT	ENDS
PUBLIC	_DllMain@12
; Function compile flags: /Ogtpy
;	COMDAT _DllMain@12
_TEXT	SEGMENT
_hModule$ = 8						; size = 4
_ul_reason_for_call$ = 12				; size = 4
_lpReserved$ = 16					; size = 4
_DllMain@12 PROC					; COMDAT

; 19   : 	switch (ul_reason_for_call)
; 20   : 	{
; 21   : 	case DLL_PROCESS_ATTACH:
; 22   : 	case DLL_THREAD_ATTACH:
; 23   : 	case DLL_THREAD_DETACH:
; 24   : 	case DLL_PROCESS_DETACH:
; 25   : 		break;
; 26   : 	}
; 27   : 	return TRUE;

  00000	b8 01 00 00 00	 mov	 eax, 1

; 28   : }

  00005	c2 0c 00	 ret	 12			; 0000000cH
_DllMain@12 ENDP
; Function compile flags: /Ogtpy
; File c:\program files (x86)\microsoft visual studio 9.0\vc\atlmfc\include\atlcomcli.h
_TEXT	ENDS
;	COMDAT ??1CComBSTR@ATL@@QAE@XZ
_TEXT	SEGMENT
??1CComBSTR@ATL@@QAE@XZ PROC				; ATL::CComBSTR::~CComBSTR, COMDAT
; _this$ = eax

; 1372 : 		::SysFreeString(m_str);

  00000	8b 08		 mov	 ecx, DWORD PTR [eax]
  00002	51		 push	 ecx
  00003	ff 15 00 00 00
	00		 call	 DWORD PTR __imp__SysFreeString@4

; 1373 : 	}

  00009	c3		 ret	 0
??1CComBSTR@ATL@@QAE@XZ ENDP				; ATL::CComBSTR::~CComBSTR
; Function compile flags: /Ogtpy
_TEXT	ENDS
;	COMDAT ??7CComBSTR@ATL@@QBE_NXZ
_TEXT	SEGMENT
??7CComBSTR@ATL@@QBE_NXZ PROC				; ATL::CComBSTR::operator!, COMDAT
; _this$ = ecx

; 805  : #pragma warning(push)
; 806  : #pragma warning(disable:4068)
; 807  : #pragma prefast(push)
; 808  : #pragma prefast(disable:325, "The semantics of this function are about allocation, not content")
; 809  : 		return (m_str == NULL);

  00000	33 c0		 xor	 eax, eax
  00002	39 01		 cmp	 DWORD PTR [ecx], eax
  00004	0f 94 c0	 sete	 al

; 810  : #pragma prefast(pop)
; 811  : #pragma warning(pop)
; 812  : 	}

  00007	c3		 ret	 0
??7CComBSTR@ATL@@QBE_NXZ ENDP				; ATL::CComBSTR::operator!
; Function compile flags: /Ogtpy
_TEXT	ENDS
;	COMDAT ?Detach@CComBSTR@ATL@@QAEPA_WXZ
_TEXT	SEGMENT
?Detach@CComBSTR@ATL@@QAEPA_WXZ PROC			; ATL::CComBSTR::Detach, COMDAT
; _this$ = ecx

; 792  : 		BSTR s = m_str;

  00000	8b 01		 mov	 eax, DWORD PTR [ecx]

; 793  : 		m_str = NULL;

  00002	c7 01 00 00 00
	00		 mov	 DWORD PTR [ecx], 0

; 794  : 		return s;
; 795  : 	}

  00008	c3		 ret	 0
?Detach@CComBSTR@ATL@@QAEPA_WXZ ENDP			; ATL::CComBSTR::Detach
; Function compile flags: /Ogtpy
; File c:\program files (x86)\microsoft visual studio 9.0\vc\atlmfc\include\atlexcept.h
_TEXT	ENDS
;	COMDAT ??0CAtlException@ATL@@QAE@J@Z
_TEXT	SEGMENT
??0CAtlException@ATL@@QAE@J@Z PROC			; ATL::CAtlException::CAtlException, COMDAT
; _this$ = eax

; 42   : 	{

  00000	c7 00 0e 00 07
	80		 mov	 DWORD PTR [eax], -2147024882 ; 8007000eH

; 43   : 	}

  00006	c3		 ret	 0
??0CAtlException@ATL@@QAE@J@Z ENDP			; ATL::CAtlException::CAtlException
; Function compile flags: /Ogtpy
_TEXT	ENDS
;	COMDAT ??0Thank_you@Define_the_symbol__ATL_MIXED@@QAE@XZ
_TEXT	SEGMENT
??0Thank_you@Define_the_symbol__ATL_MIXED@@QAE@XZ PROC	; Define_the_symbol__ATL_MIXED::Thank_you::Thank_you, COMDAT
  00000	c7 05 00 00 00
	00 00 00 00 00	 mov	 DWORD PTR ?clash@Define_the_symbol__ATL_MIXED@@3UThank_you@1@A, OFFSET ??_7Thank_you@Define_the_symbol__ATL_MIXED@@6B@ ; Define_the_symbol__ATL_MIXED::clash
  0000a	b8 00 00 00 00	 mov	 eax, OFFSET ?clash@Define_the_symbol__ATL_MIXED@@3UThank_you@1@A ; Define_the_symbol__ATL_MIXED::clash
  0000f	c3		 ret	 0
??0Thank_you@Define_the_symbol__ATL_MIXED@@QAE@XZ ENDP	; Define_the_symbol__ATL_MIXED::Thank_you::Thank_you
; Function compile flags: /Ogtpy
; File c:\program files (x86)\microsoft visual studio 9.0\vc\atlmfc\include\atldef.h
_TEXT	ENDS
;	COMDAT ?one@Thank_you@Define_the_symbol__ATL_MIXED@@UAEXXZ
_TEXT	SEGMENT
?one@Thank_you@Define_the_symbol__ATL_MIXED@@UAEXXZ PROC ; Define_the_symbol__ATL_MIXED::Thank_you::one, COMDAT
; _this$ = ecx

; 80   : 	struct Thank_you { virtual void one(){} };

  00000	c3		 ret	 0
?one@Thank_you@Define_the_symbol__ATL_MIXED@@UAEXXZ ENDP ; Define_the_symbol__ATL_MIXED::Thank_you::one
_TEXT	ENDS
PUBLIC	__$ArrayPad$
; Function compile flags: /Ogtpy
; File f:\lvdun\trunk\code\greenshield\gspre\peeidhelper.h
;	COMDAT ?GetMacByGetAdaptersAddresses@@YA_NAAV?$basic_string@_WU?$char_traits@_W@std@@V?$allocator@_W@2@@std@@@Z
_TEXT	SEGMENT
_outBufLen$ = -72					; size = 4
_acMAC$49182 = -68					; size = 64
__$ArrayPad$ = -4					; size = 4
_macOUT$ = 8						; size = 4
?GetMacByGetAdaptersAddresses@@YA_NAAV?$basic_string@_WU?$char_traits@_W@std@@V?$allocator@_W@2@@std@@@Z PROC ; GetMacByGetAdaptersAddresses, COMDAT

; 11   : {

  00000	83 ec 48	 sub	 esp, 72			; 00000048H
  00003	a1 00 00 00 00	 mov	 eax, DWORD PTR ___security_cookie
  00008	33 c4		 xor	 eax, esp
  0000a	89 44 24 44	 mov	 DWORD PTR __$ArrayPad$[esp+72], eax
  0000e	53		 push	 ebx
  0000f	55		 push	 ebp
  00010	8b 6c 24 54	 mov	 ebp, DWORD PTR _macOUT$[esp+76]
  00014	56		 push	 esi
  00015	57		 push	 edi

; 12   : 	bool ret = false;
; 13   : 
; 14   : 	ULONG outBufLen = sizeof(IP_ADAPTER_ADDRESSES);
; 15   : 	PIP_ADAPTER_ADDRESSES pAddresses = (IP_ADAPTER_ADDRESSES*)malloc(outBufLen);

  00016	8b 3d 00 00 00
	00		 mov	 edi, DWORD PTR __imp__malloc
  0001c	68 70 01 00 00	 push	 368			; 00000170H
  00021	32 db		 xor	 bl, bl
  00023	c7 44 24 14 70
	01 00 00	 mov	 DWORD PTR _outBufLen$[esp+92], 368 ; 00000170H
  0002b	ff d7		 call	 edi
  0002d	8b f0		 mov	 esi, eax
  0002f	83 c4 04	 add	 esp, 4

; 16   : 	if (pAddresses == NULL) 

  00032	85 f6		 test	 esi, esi
  00034	75 15		 jne	 SHORT $LN8@GetMacByGe
$LN14@GetMacByGe:
  00036	5f		 pop	 edi
  00037	5e		 pop	 esi
  00038	5d		 pop	 ebp

; 17   : 		return false;

  00039	32 c0		 xor	 al, al
  0003b	5b		 pop	 ebx

; 50   : 	return ret;
; 51   : }

  0003c	8b 4c 24 44	 mov	 ecx, DWORD PTR __$ArrayPad$[esp+72]
  00040	33 cc		 xor	 ecx, esp
  00042	e8 00 00 00 00	 call	 @__security_check_cookie@4
  00047	83 c4 48	 add	 esp, 72			; 00000048H
  0004a	c3		 ret	 0
$LN8@GetMacByGe:

; 18   : 	// Make an initial call to GetAdaptersAddresses to get the necessary size into the ulOutBufLen variable
; 19   : 	if(GetAdaptersAddresses(AF_UNSPEC, 0, NULL, pAddresses, &outBufLen) == ERROR_BUFFER_OVERFLOW)

  0004b	8d 44 24 10	 lea	 eax, DWORD PTR _outBufLen$[esp+88]
  0004f	50		 push	 eax
  00050	56		 push	 esi
  00051	6a 00		 push	 0
  00053	6a 00		 push	 0
  00055	6a 00		 push	 0
  00057	e8 00 00 00 00	 call	 _GetAdaptersAddresses@20
  0005c	83 f8 6f	 cmp	 eax, 111		; 0000006fH
  0005f	75 17		 jne	 SHORT $LN13@GetMacByGe

; 20   : 	{
; 21   : 		free(pAddresses);

  00061	56		 push	 esi
  00062	ff 15 00 00 00
	00		 call	 DWORD PTR __imp__free

; 22   : 		pAddresses = (IP_ADAPTER_ADDRESSES*)malloc(outBufLen);

  00068	8b 4c 24 14	 mov	 ecx, DWORD PTR _outBufLen$[esp+92]
  0006c	51		 push	 ecx
  0006d	ff d7		 call	 edi
  0006f	8b f0		 mov	 esi, eax
  00071	83 c4 08	 add	 esp, 8

; 23   : 		if (pAddresses == NULL) 

  00074	85 f6		 test	 esi, esi

; 24   : 			return false;

  00076	74 be		 je	 SHORT $LN14@GetMacByGe
$LN13@GetMacByGe:

; 25   : 	}
; 26   : 
; 27   : 	if(GetAdaptersAddresses(AF_UNSPEC, 0, NULL, pAddresses, &outBufLen) == NO_ERROR)

  00078	8d 54 24 10	 lea	 edx, DWORD PTR _outBufLen$[esp+88]
  0007c	52		 push	 edx
  0007d	56		 push	 esi
  0007e	6a 00		 push	 0
  00080	6a 00		 push	 0
  00082	6a 00		 push	 0
  00084	e8 00 00 00 00	 call	 _GetAdaptersAddresses@20
  00089	85 c0		 test	 eax, eax
  0008b	75 59		 jne	 SHORT $LN2@GetMacByGe

; 28   : 	{
; 29   : 		// If successful, output some information from the data we received
; 30   : 		for(PIP_ADAPTER_ADDRESSES pCurrAddresses = pAddresses; pCurrAddresses != NULL; pCurrAddresses = pCurrAddresses->Next)

  0008d	8b c6		 mov	 eax, esi
  0008f	85 f6		 test	 esi, esi
  00091	74 53		 je	 SHORT $LN2@GetMacByGe
  00093	b9 06 00 00 00	 mov	 ecx, 6
$LL4@GetMacByGe:

; 31   : 		{
; 32   : 			// 确保MAC地址的长度为 00-00-00-00-00-00
; 33   : 			if(pCurrAddresses->PhysicalAddressLength != 6)

  00098	39 48 34	 cmp	 DWORD PTR [eax+52], ecx
  0009b	74 09		 je	 SHORT $LN1@GetMacByGe
  0009d	8b 40 08	 mov	 eax, DWORD PTR [eax+8]
  000a0	85 c0		 test	 eax, eax
  000a2	75 f4		 jne	 SHORT $LL4@GetMacByGe

; 28   : 	{
; 29   : 		// If successful, output some information from the data we received
; 30   : 		for(PIP_ADAPTER_ADDRESSES pCurrAddresses = pAddresses; pCurrAddresses != NULL; pCurrAddresses = pCurrAddresses->Next)

  000a4	eb 40		 jmp	 SHORT $LN2@GetMacByGe
$LN1@GetMacByGe:

; 34   : 				continue;
; 35   : 			wchar_t acMAC[32];
; 36   : 			wsprintf(acMAC, L"%02X%02X%02X%02X%02X%02X",
; 37   : 				int (pCurrAddresses->PhysicalAddress[0]),
; 38   : 				int (pCurrAddresses->PhysicalAddress[1]),
; 39   : 				int (pCurrAddresses->PhysicalAddress[2]),
; 40   : 				int (pCurrAddresses->PhysicalAddress[3]),
; 41   : 				int (pCurrAddresses->PhysicalAddress[4]),
; 42   : 				int (pCurrAddresses->PhysicalAddress[5]));

  000a6	0f b6 48 31	 movzx	 ecx, BYTE PTR [eax+49]
  000aa	0f b6 50 30	 movzx	 edx, BYTE PTR [eax+48]
  000ae	51		 push	 ecx
  000af	0f b6 48 2f	 movzx	 ecx, BYTE PTR [eax+47]
  000b3	52		 push	 edx
  000b4	0f b6 50 2e	 movzx	 edx, BYTE PTR [eax+46]
  000b8	51		 push	 ecx
  000b9	0f b6 48 2d	 movzx	 ecx, BYTE PTR [eax+45]
  000bd	52		 push	 edx
  000be	0f b6 50 2c	 movzx	 edx, BYTE PTR [eax+44]
  000c2	51		 push	 ecx
  000c3	52		 push	 edx
  000c4	8d 44 24 2c	 lea	 eax, DWORD PTR _acMAC$49182[esp+112]
  000c8	68 00 00 00 00	 push	 OFFSET ??_C@_1DC@PLONAMAJ@?$AA?$CF?$AA0?$AA2?$AAX?$AA?$CF?$AA0?$AA2?$AAX?$AA?$CF?$AA0?$AA2?$AAX?$AA?$CF?$AA0?$AA2?$AAX?$AA?$CF?$AA0?$AA2?$AAX?$AA?$CF?$AA0?$AA2?$AAX?$AA?$AA@
  000cd	50		 push	 eax
  000ce	ff 15 00 00 00
	00		 call	 DWORD PTR __imp__wsprintfW
  000d4	83 c4 20	 add	 esp, 32			; 00000020H

; 43   : 			macOUT = acMAC;

  000d7	8d 4c 24 14	 lea	 ecx, DWORD PTR _acMAC$49182[esp+88]
  000db	51		 push	 ecx
  000dc	8b cd		 mov	 ecx, ebp
  000de	ff 15 00 00 00
	00		 call	 DWORD PTR __imp_??4?$basic_string@_WU?$char_traits@_W@std@@V?$allocator@_W@2@@std@@QAEAAV01@PB_W@Z

; 44   : 			ret = true;

  000e4	b3 01		 mov	 bl, 1
$LN2@GetMacByGe:

; 45   : 			break;
; 46   : 		}
; 47   : 	} 
; 48   : 
; 49   : 	free(pAddresses);

  000e6	56		 push	 esi
  000e7	ff 15 00 00 00
	00		 call	 DWORD PTR __imp__free

; 50   : 	return ret;
; 51   : }

  000ed	8b 4c 24 58	 mov	 ecx, DWORD PTR __$ArrayPad$[esp+92]
  000f1	83 c4 04	 add	 esp, 4
  000f4	5f		 pop	 edi
  000f5	5e		 pop	 esi
  000f6	5d		 pop	 ebp
  000f7	8a c3		 mov	 al, bl
  000f9	5b		 pop	 ebx
  000fa	33 cc		 xor	 ecx, esp
  000fc	e8 00 00 00 00	 call	 @__security_check_cookie@4
  00101	83 c4 48	 add	 esp, 72			; 00000048H
  00104	c3		 ret	 0
?GetMacByGetAdaptersAddresses@@YA_NAAV?$basic_string@_WU?$char_traits@_W@std@@V?$allocator@_W@2@@std@@@Z ENDP ; GetMacByGetAdaptersAddresses
; Function compile flags: /Ogtpy
; File c:\program files (x86)\microsoft visual studio 9.0\vc\include\time.inl
_TEXT	ENDS
;	COMDAT _time
_TEXT	SEGMENT
_time	PROC						; COMDAT
; __Time$ = eax

; 135  :     return _time64(_Time);

  00000	50		 push	 eax
  00001	ff 15 00 00 00
	00		 call	 DWORD PTR __imp___time64
  00007	83 c4 04	 add	 esp, 4

; 136  : }

  0000a	c3		 ret	 0
_time	ENDP
_TEXT	ENDS
PUBLIC	_GetTime
; Function compile flags: /Ogtpy
; File f:\lvdun\trunk\code\greenshield\dssetuphelper\dllmain.cpp
;	COMDAT _GetTime
_TEXT	SEGMENT
_t$ = -8						; size = 8
_pnTime$ = 8						; size = 4
_GetTime PROC						; COMDAT

; 127  : {

  00000	83 ec 08	 sub	 esp, 8
  00003	56		 push	 esi

; 128  : 	TSAUTO();
; 129  : 	if(pnTime == NULL)

  00004	8b 74 24 10	 mov	 esi, DWORD PTR _pnTime$[esp+8]
  00008	85 f6		 test	 esi, esi
  0000a	74 14		 je	 SHORT $LN2@GetTime

; 130  : 		return;
; 131  : 	time_t t;
; 132  : 	time( &t );

  0000c	8d 44 24 04	 lea	 eax, DWORD PTR _t$[esp+12]
  00010	50		 push	 eax
  00011	ff 15 00 00 00
	00		 call	 DWORD PTR __imp___time64

; 133  : 	*pnTime = (DWORD)t;

  00017	8b 4c 24 08	 mov	 ecx, DWORD PTR _t$[esp+16]
  0001b	83 c4 04	 add	 esp, 4
  0001e	89 0e		 mov	 DWORD PTR [esi], ecx
$LN2@GetTime:
  00020	5e		 pop	 esi

; 134  : }

  00021	83 c4 08	 add	 esp, 8
  00024	c3		 ret	 0
_GetTime ENDP
; Function compile flags: /Ogtpy
_TEXT	ENDS
;	COMDAT ??1stringdispid@CComTypeInfoHolder@ATL@@QAE@XZ
_TEXT	SEGMENT
??1stringdispid@CComTypeInfoHolder@ATL@@QAE@XZ PROC	; ATL::CComTypeInfoHolder::stringdispid::~stringdispid, COMDAT
; _this$ = ecx
  00000	8b 01		 mov	 eax, DWORD PTR [ecx]
  00002	50		 push	 eax
  00003	ff 15 00 00 00
	00		 call	 DWORD PTR __imp__SysFreeString@4
  00009	c3		 ret	 0
??1stringdispid@CComTypeInfoHolder@ATL@@QAE@XZ ENDP	; ATL::CComTypeInfoHolder::stringdispid::~stringdispid
_TEXT	ENDS
EXTRN	__CxxThrowException@8:PROC
; Function compile flags: /Ogtpy
; File c:\program files (x86)\microsoft visual studio 9.0\vc\atlmfc\include\atlexcept.h
;	COMDAT ?AtlThrowImpl@ATL@@YGXJ@Z
_TEXT	SEGMENT
$T140804 = -4						; size = 4
?AtlThrowImpl@ATL@@YGXJ@Z PROC				; ATL::AtlThrowImpl, COMDAT

; 63   : {

  00000	51		 push	 ecx

; 64   : 	ATLTRACE(atlTraceException, 0, _T("AtlThrow: hr = 0x%x\n"), hr );
; 65   : #ifdef _AFX
; 66   : 	if( hr == E_OUTOFMEMORY )
; 67   : 	{
; 68   : 		AfxThrowMemoryException();
; 69   : 	}
; 70   : 	else
; 71   : 	{
; 72   : 		AfxThrowOleException( hr );
; 73   : 	}
; 74   : #else
; 75   : 	throw CAtlException( hr );

  00001	68 00 00 00 00	 push	 OFFSET __TI1?AVCAtlException@ATL@@
  00006	8d 44 24 04	 lea	 eax, DWORD PTR $T140804[esp+8]
  0000a	50		 push	 eax
  0000b	c7 44 24 08 0e
	00 07 80	 mov	 DWORD PTR $T140804[esp+12], -2147024882 ; 8007000eH
  00013	e8 00 00 00 00	 call	 __CxxThrowException@8
$LN6@AtlThrowIm:
$LN5@AtlThrowIm:
  00018	cc		 int	 3
?AtlThrowImpl@ATL@@YGXJ@Z ENDP				; ATL::AtlThrowImpl
_TEXT	ENDS
PUBLIC	__$ArrayPad$
EXTRN	___CxxFrameHandler3:PROC
;	COMDAT xdata$x
; File c:\program files (x86)\microsoft visual studio 9.0\vc\include\time.inl
xdata$x	SEGMENT
__unwindtable$?GetPeerId_@@YAXAAV?$basic_string@_WU?$char_traits@_W@std@@V?$allocator@_W@2@@std@@@Z DD 0ffffffffH
	DD	FLAT:__unwindfunclet$?GetPeerId_@@YAXAAV?$basic_string@_WU?$char_traits@_W@std@@V?$allocator@_W@2@@std@@@Z$0
__ehfuncinfo$?GetPeerId_@@YAXAAV?$basic_string@_WU?$char_traits@_W@std@@V?$allocator@_W@2@@std@@@Z DD 019930522H
	DD	01H
	DD	FLAT:__unwindtable$?GetPeerId_@@YAXAAV?$basic_string@_WU?$char_traits@_W@std@@V?$allocator@_W@2@@std@@@Z
	DD	2 DUP(00H)
	DD	2 DUP(00H)
	DD	00H
	DD	01H
; Function compile flags: /Ogtpy
; File f:\lvdun\trunk\code\greenshield\gspre\peeidhelper.h
xdata$x	ENDS
;	COMDAT ?GetPeerId_@@YAXAAV?$basic_string@_WU?$char_traits@_W@std@@V?$allocator@_W@2@@std@@@Z
_TEXT	SEGMENT
_szRam$49195 = -48					; size = 4
_wstrMAC$ = -44						; size = 28
__$ArrayPad$ = -16					; size = 4
__$EHRec$ = -12						; size = 12
?GetPeerId_@@YAXAAV?$basic_string@_WU?$char_traits@_W@std@@V?$allocator@_W@2@@std@@@Z PROC ; GetPeerId_, COMDAT
; _wstrPeerId$ = esi

; 55   : {

  00000	6a ff		 push	 -1
  00002	68 00 00 00 00	 push	 __ehhandler$?GetPeerId_@@YAXAAV?$basic_string@_WU?$char_traits@_W@std@@V?$allocator@_W@2@@std@@@Z
  00007	64 a1 00 00 00
	00		 mov	 eax, DWORD PTR fs:0
  0000d	50		 push	 eax
  0000e	83 ec 24	 sub	 esp, 36			; 00000024H
  00011	a1 00 00 00 00	 mov	 eax, DWORD PTR ___security_cookie
  00016	33 c4		 xor	 eax, esp
  00018	89 44 24 20	 mov	 DWORD PTR __$ArrayPad$[esp+48], eax
  0001c	53		 push	 ebx
  0001d	55		 push	 ebp
  0001e	57		 push	 edi
  0001f	a1 00 00 00 00	 mov	 eax, DWORD PTR ___security_cookie
  00024	33 c4		 xor	 eax, esp
  00026	50		 push	 eax
  00027	8d 44 24 34	 lea	 eax, DWORD PTR __$EHRec$[esp+64]
  0002b	64 a3 00 00 00
	00		 mov	 DWORD PTR fs:0, eax

; 56   : 	std::wstring wstrMAC;

  00031	8d 4c 24 14	 lea	 ecx, DWORD PTR _wstrMAC$[esp+64]
  00035	ff 15 00 00 00
	00		 call	 DWORD PTR __imp_??0?$basic_string@_WU?$char_traits@_W@std@@V?$allocator@_W@2@@std@@QAE@XZ

; 57   : 	if (!GetMacByGetAdaptersAddresses(wstrMAC))

  0003b	8d 44 24 14	 lea	 eax, DWORD PTR _wstrMAC$[esp+64]
  0003f	50		 push	 eax
  00040	c7 44 24 40 00
	00 00 00	 mov	 DWORD PTR __$EHRec$[esp+76], 0
  00048	e8 00 00 00 00	 call	 ?GetMacByGetAdaptersAddresses@@YA_NAAV?$basic_string@_WU?$char_traits@_W@std@@V?$allocator@_W@2@@std@@@Z ; GetMacByGetAdaptersAddresses
  0004d	83 c4 04	 add	 esp, 4
  00050	84 c0		 test	 al, al
  00052	75 0f		 jne	 SHORT $LN4@GetPeerId_

; 58   : 	{
; 59   : 		wstrMAC = L"000000000000";

  00054	68 00 00 00 00	 push	 OFFSET ??_C@_1BK@LBGPFNN@?$AA0?$AA0?$AA0?$AA0?$AA0?$AA0?$AA0?$AA0?$AA0?$AA0?$AA0?$AA0?$AA?$AA@
  00059	8d 4c 24 18	 lea	 ecx, DWORD PTR _wstrMAC$[esp+68]
  0005d	ff 15 00 00 00
	00		 call	 DWORD PTR __imp_??4?$basic_string@_WU?$char_traits@_W@std@@V?$allocator@_W@2@@std@@QAEAAV01@PB_W@Z
$LN4@GetPeerId_:

; 60   : 	}
; 61   : 	wstrPeerId = wstrMAC;

  00063	8d 4c 24 14	 lea	 ecx, DWORD PTR _wstrMAC$[esp+64]
  00067	51		 push	 ecx
  00068	8b ce		 mov	 ecx, esi
  0006a	ff 15 00 00 00
	00		 call	 DWORD PTR __imp_??4?$basic_string@_WU?$char_traits@_W@std@@V?$allocator@_W@2@@std@@QAEAAV01@ABV01@@Z

; 62   : 	srand( (unsigned)time( NULL ) );

  00070	6a 00		 push	 0
  00072	ff 15 00 00 00
	00		 call	 DWORD PTR __imp___time64
  00078	50		 push	 eax
  00079	ff 15 00 00 00
	00		 call	 DWORD PTR __imp__srand
  0007f	8b 1d 00 00 00
	00		 mov	 ebx, DWORD PTR __imp__wsprintfW
  00085	8b 2d 00 00 00
	00		 mov	 ebp, DWORD PTR __imp__rand
  0008b	83 c4 08	 add	 esp, 8
  0008e	bf 04 00 00 00	 mov	 edi, 4
$LL3@GetPeerId_:

; 63   : 	for(int i=0;i<4;i++)
; 64   : 	{
; 65   : 		wchar_t szRam[2] = {0};

  00093	33 d2		 xor	 edx, edx
  00095	33 c0		 xor	 eax, eax
  00097	66 89 54 24 10	 mov	 WORD PTR _szRam$49195[esp+64], dx
  0009c	66 89 44 24 12	 mov	 WORD PTR _szRam$49195[esp+66], ax

; 66   : 		wsprintf(szRam,L"%X", rand()%16);

  000a1	ff d5		 call	 ebp
  000a3	25 0f 00 00 80	 and	 eax, -2147483633	; 8000000fH
  000a8	79 05		 jns	 SHORT $LN13@GetPeerId_
  000aa	48		 dec	 eax
  000ab	83 c8 f0	 or	 eax, -16		; fffffff0H
  000ae	40		 inc	 eax
$LN13@GetPeerId_:
  000af	50		 push	 eax
  000b0	8d 4c 24 14	 lea	 ecx, DWORD PTR _szRam$49195[esp+68]
  000b4	68 00 00 00 00	 push	 OFFSET ??_C@_15BHOFONJE@?$AA?$CF?$AAX?$AA?$AA@
  000b9	51		 push	 ecx
  000ba	ff d3		 call	 ebx
  000bc	83 c4 0c	 add	 esp, 12			; 0000000cH

; 67   : 		szRam[1]=L'\0';
; 68   : 		wstrPeerId += szRam;

  000bf	8d 44 24 10	 lea	 eax, DWORD PTR _szRam$49195[esp+64]
  000c3	33 d2		 xor	 edx, edx
  000c5	50		 push	 eax
  000c6	8b ce		 mov	 ecx, esi
  000c8	66 89 54 24 16	 mov	 WORD PTR _szRam$49195[esp+70], dx
  000cd	ff 15 00 00 00
	00		 call	 DWORD PTR __imp_??Y?$basic_string@_WU?$char_traits@_W@std@@V?$allocator@_W@2@@std@@QAEAAV01@PB_W@Z
  000d3	83 ef 01	 sub	 edi, 1
  000d6	75 bb		 jne	 SHORT $LL3@GetPeerId_

; 69   : 	}
; 70   : 	return ;

  000d8	8d 4c 24 14	 lea	 ecx, DWORD PTR _wstrMAC$[esp+64]
  000dc	c7 44 24 3c ff
	ff ff ff	 mov	 DWORD PTR __$EHRec$[esp+72], -1
  000e4	ff 15 00 00 00
	00		 call	 DWORD PTR __imp_??1?$basic_string@_WU?$char_traits@_W@std@@V?$allocator@_W@2@@std@@QAE@XZ

; 71   : }

  000ea	8b 4c 24 34	 mov	 ecx, DWORD PTR __$EHRec$[esp+64]
  000ee	64 89 0d 00 00
	00 00		 mov	 DWORD PTR fs:0, ecx
  000f5	59		 pop	 ecx
  000f6	5f		 pop	 edi
  000f7	5d		 pop	 ebp
  000f8	5b		 pop	 ebx
  000f9	8b 4c 24 20	 mov	 ecx, DWORD PTR __$ArrayPad$[esp+48]
  000fd	33 cc		 xor	 ecx, esp
  000ff	e8 00 00 00 00	 call	 @__security_check_cookie@4
  00104	83 c4 30	 add	 esp, 48			; 00000030H
  00107	c3		 ret	 0
_TEXT	ENDS
;	COMDAT text$x
text$x	SEGMENT
__unwindfunclet$?GetPeerId_@@YAXAAV?$basic_string@_WU?$char_traits@_W@std@@V?$allocator@_W@2@@std@@@Z$0:
  00000	8d 4d d4	 lea	 ecx, DWORD PTR _wstrMAC$[ebp]
  00003	ff 25 00 00 00
	00		 jmp	 DWORD PTR __imp_??1?$basic_string@_WU?$char_traits@_W@std@@V?$allocator@_W@2@@std@@QAE@XZ
__ehhandler$?GetPeerId_@@YAXAAV?$basic_string@_WU?$char_traits@_W@std@@V?$allocator@_W@2@@std@@@Z:
  00009	8b 54 24 08	 mov	 edx, DWORD PTR [esp+8]
  0000d	8d 42 d0	 lea	 eax, DWORD PTR [edx-48]
  00010	8b 4a cc	 mov	 ecx, DWORD PTR [edx-52]
  00013	33 c8		 xor	 ecx, eax
  00015	e8 00 00 00 00	 call	 @__security_check_cookie@4
  0001a	83 c0 0c	 add	 eax, 12			; 0000000cH
  0001d	8b 4a fc	 mov	 ecx, DWORD PTR [edx-4]
  00020	33 c8		 xor	 ecx, eax
  00022	e8 00 00 00 00	 call	 @__security_check_cookie@4
  00027	b8 00 00 00 00	 mov	 eax, OFFSET __ehfuncinfo$?GetPeerId_@@YAXAAV?$basic_string@_WU?$char_traits@_W@std@@V?$allocator@_W@2@@std@@@Z
  0002c	e9 00 00 00 00	 jmp	 ___CxxFrameHandler3
text$x	ENDS
?GetPeerId_@@YAXAAV?$basic_string@_WU?$char_traits@_W@std@@V?$allocator@_W@2@@std@@@Z ENDP ; GetPeerId_
PUBLIC	__$ArrayPad$
PUBLIC	_GetPeerID
; Function compile flags: /Ogtpy
; File f:\lvdun\trunk\code\greenshield\dssetuphelper\dllmain.cpp
;	COMDAT _GetPeerID
_TEXT	SEGMENT
_strPeerID$ = -32					; size = 28
__$ArrayPad$ = -4					; size = 4
_pszPeerID$ = 8						; size = 4
_GetPeerID PROC						; COMDAT

; 113  : {

  00000	83 ec 20	 sub	 esp, 32			; 00000020H
  00003	a1 00 00 00 00	 mov	 eax, DWORD PTR ___security_cookie
  00008	33 c4		 xor	 eax, esp
  0000a	89 44 24 1c	 mov	 DWORD PTR __$ArrayPad$[esp+32], eax
  0000e	56		 push	 esi
  0000f	57		 push	 edi
  00010	8b 7c 24 2c	 mov	 edi, DWORD PTR _pszPeerID$[esp+36]

; 114  : 	std::wstring strPeerID;

  00014	8d 4c 24 08	 lea	 ecx, DWORD PTR _strPeerID$[esp+40]
  00018	ff 15 00 00 00
	00		 call	 DWORD PTR __imp_??0?$basic_string@_WU?$char_traits@_W@std@@V?$allocator@_W@2@@std@@QAE@XZ

; 115  : 	GetPeerId_(strPeerID);

  0001e	8d 74 24 08	 lea	 esi, DWORD PTR _strPeerID$[esp+40]
  00022	e8 00 00 00 00	 call	 ?GetPeerId_@@YAXAAV?$basic_string@_WU?$char_traits@_W@std@@V?$allocator@_W@2@@std@@@Z ; GetPeerId_

; 116  : 	_tcscpy(pszPeerID,strPeerID.c_str());

  00027	83 7c 24 20 08	 cmp	 DWORD PTR _strPeerID$[esp+64], 8
  0002c	8b 54 24 0c	 mov	 edx, DWORD PTR _strPeerID$[esp+44]
  00030	73 04		 jae	 SHORT $LN9@GetPeerID
  00032	8d 54 24 0c	 lea	 edx, DWORD PTR _strPeerID$[esp+44]
$LN9@GetPeerID:
  00036	8b cf		 mov	 ecx, edi
  00038	5f		 pop	 edi
  00039	5e		 pop	 esi
  0003a	8d 9b 00 00 00
	00		 npad	 6
$LL3@GetPeerID:
  00040	0f b7 02	 movzx	 eax, WORD PTR [edx]
  00043	66 89 01	 mov	 WORD PTR [ecx], ax
  00046	83 c2 02	 add	 edx, 2
  00049	83 c1 02	 add	 ecx, 2
  0004c	66 85 c0	 test	 ax, ax
  0004f	75 ef		 jne	 SHORT $LL3@GetPeerID

; 117  : }

  00051	8d 0c 24	 lea	 ecx, DWORD PTR _strPeerID$[esp+32]
  00054	ff 15 00 00 00
	00		 call	 DWORD PTR __imp_??1?$basic_string@_WU?$char_traits@_W@std@@V?$allocator@_W@2@@std@@QAE@XZ
  0005a	8b 4c 24 1c	 mov	 ecx, DWORD PTR __$ArrayPad$[esp+32]
  0005e	33 cc		 xor	 ecx, esp
  00060	e8 00 00 00 00	 call	 @__security_check_cookie@4
  00065	83 c4 20	 add	 esp, 32			; 00000020H
  00068	c3		 ret	 0
_GetPeerID ENDP
; Function compile flags: /Ogtpy
; File c:\program files (x86)\microsoft visual studio 9.0\vc\atlmfc\include\atlcomcli.h
_TEXT	ENDS
;	COMDAT ??0CComBSTR@ATL@@QAE@PB_W@Z
_TEXT	SEGMENT
??0CComBSTR@ATL@@QAE@PB_W@Z PROC			; ATL::CComBSTR::CComBSTR, COMDAT
; _this$ = esi
; _pSrc$ = eax

; 609  : 	{
; 610  : 		if (pSrc == NULL)

  00000	85 c0		 test	 eax, eax
  00002	75 05		 jne	 SHORT $LN3@CComBSTR

; 611  :         {
; 612  : 			m_str = NULL;

  00004	89 06		 mov	 DWORD PTR [esi], eax
$LN1@CComBSTR:

; 620  :             }
; 621  : 		}
; 622  : 	}

  00006	8b c6		 mov	 eax, esi
  00008	c3		 ret	 0
$LN3@CComBSTR:
  00009	50		 push	 eax
  0000a	ff 15 00 00 00
	00		 call	 DWORD PTR __imp__SysAllocString@4
  00010	89 06		 mov	 DWORD PTR [esi], eax
  00012	85 c0		 test	 eax, eax
  00014	75 f0		 jne	 SHORT $LN1@CComBSTR

; 613  :         }
; 614  : 		else
; 615  : 		{
; 616  : 			m_str = ::SysAllocString(pSrc);
; 617  : 			if (!*this)
; 618  :             {
; 619  : 				AtlThrow(E_OUTOFMEMORY);

  00016	e9 00 00 00 00	 jmp	 ?AtlThrowImpl@ATL@@YGXJ@Z ; ATL::AtlThrowImpl
??0CComBSTR@ATL@@QAE@PB_W@Z ENDP			; ATL::CComBSTR::CComBSTR
_TEXT	ENDS
PUBLIC	__$ArrayPad$
PUBLIC	_SendAnyHttpStat
; Function compile flags: /Ogtpy
; File f:\lvdun\trunk\code\greenshield\dssetuphelper\dllmain.cpp
;	COMDAT _SendAnyHttpStat
_TEXT	SEGMENT
_dwThreadId$ = -1104					; size = 4
_str$ = -1100						; size = 28
_strPeerID$ = -1072					; size = 28
_szev$130077 = -1044					; size = 520
_szURL$ = -524						; size = 520
__$ArrayPad$ = -4					; size = 4
_ec$ = 8						; size = 4
_ea$ = 12						; size = 4
_el$ = 16						; size = 4
_ev$ = 20						; size = 4
_SendAnyHttpStat PROC					; COMDAT

; 53   : {

  00000	81 ec 50 04 00
	00		 sub	 esp, 1104		; 00000450H
  00006	a1 00 00 00 00	 mov	 eax, DWORD PTR ___security_cookie
  0000b	33 c4		 xor	 eax, esp
  0000d	89 84 24 4c 04
	00 00		 mov	 DWORD PTR __$ArrayPad$[esp+1104], eax
  00014	53		 push	 ebx
  00015	8b 9c 24 58 04
	00 00		 mov	 ebx, DWORD PTR _ec$[esp+1104]
  0001c	55		 push	 ebp
  0001d	8b ac 24 60 04
	00 00		 mov	 ebp, DWORD PTR _ea$[esp+1108]
  00024	57		 push	 edi
  00025	8b bc 24 68 04
	00 00		 mov	 edi, DWORD PTR _el$[esp+1112]

; 54   : 	if (ec == NULL || ea == NULL)

  0002c	85 db		 test	 ebx, ebx
  0002e	0f 84 41 01 00
	00		 je	 $LN3@SendAnyHtt
  00034	85 ed		 test	 ebp, ebp
  00036	0f 84 39 01 00
	00		 je	 $LN3@SendAnyHtt
  0003c	56		 push	 esi

; 55   : 	{
; 56   : 		return ;
; 57   : 	}
; 58   : 
; 59   : 	TSAUTO();
; 60   : 	TCHAR szURL[MAX_PATH] = {0};

  0003d	33 c0		 xor	 eax, eax
  0003f	68 06 02 00 00	 push	 518			; 00000206H
  00044	50		 push	 eax
  00045	8d 8c 24 5e 02
	00 00		 lea	 ecx, DWORD PTR _szURL$[esp+1130]
  0004c	51		 push	 ecx
  0004d	66 89 84 24 60
	02 00 00	 mov	 WORD PTR _szURL$[esp+1132], ax
  00055	e8 00 00 00 00	 call	 _memset
  0005a	83 c4 0c	 add	 esp, 12			; 0000000cH

; 61   : 	std::wstring strPeerID;

  0005d	8d 4c 24 30	 lea	 ecx, DWORD PTR _strPeerID$[esp+1120]
  00061	ff 15 00 00 00
	00		 call	 DWORD PTR __imp_??0?$basic_string@_WU?$char_traits@_W@std@@V?$allocator@_W@2@@std@@QAE@XZ

; 62   : 	GetPeerId_(strPeerID);

  00067	8d 74 24 30	 lea	 esi, DWORD PTR _strPeerID$[esp+1120]
  0006b	e8 00 00 00 00	 call	 ?GetPeerId_@@YAXAAV?$basic_string@_WU?$char_traits@_W@std@@V?$allocator@_W@2@@std@@@Z ; GetPeerId_

; 63   : 	std::wstring str = L"";

  00070	68 00 00 00 00	 push	 OFFSET ??_C@_11LOCGONAA@?$AA?$AA@
  00075	8d 4c 24 18	 lea	 ecx, DWORD PTR _str$[esp+1124]
  00079	ff 15 00 00 00
	00		 call	 DWORD PTR __imp_??0?$basic_string@_WU?$char_traits@_W@std@@V?$allocator@_W@2@@std@@QAE@PB_W@Z

; 64   : 	if (el != NULL )

  0007f	85 ff		 test	 edi, edi
  00081	74 1a		 je	 SHORT $LN2@SendAnyHtt

; 65   : 	{
; 66   : 		str +=L"&el=";

  00083	68 00 00 00 00	 push	 OFFSET ??_C@_19LLEKKFJM@?$AA?$CG?$AAe?$AAl?$AA?$DN?$AA?$AA@
  00088	8d 4c 24 18	 lea	 ecx, DWORD PTR _str$[esp+1124]
  0008c	ff 15 00 00 00
	00		 call	 DWORD PTR __imp_??Y?$basic_string@_WU?$char_traits@_W@std@@V?$allocator@_W@2@@std@@QAEAAV01@PB_W@Z

; 67   : 		str +=el;

  00092	57		 push	 edi
  00093	8d 4c 24 18	 lea	 ecx, DWORD PTR _str$[esp+1124]
  00097	ff 15 00 00 00
	00		 call	 DWORD PTR __imp_??Y?$basic_string@_WU?$char_traits@_W@std@@V?$allocator@_W@2@@std@@QAEAAV01@PB_W@Z
$LN2@SendAnyHtt:

; 68   : 	}
; 69   : 	if (ev != 0)

  0009d	8b bc 24 70 04
	00 00		 mov	 edi, DWORD PTR _ev$[esp+1116]
  000a4	8b 35 00 00 00
	00		 mov	 esi, DWORD PTR __imp___swprintf
  000aa	85 ff		 test	 edi, edi
  000ac	74 36		 je	 SHORT $LN1@SendAnyHtt

; 70   : 	{
; 71   : 		TCHAR szev[MAX_PATH] = {0};

  000ae	33 d2		 xor	 edx, edx
  000b0	68 06 02 00 00	 push	 518			; 00000206H
  000b5	52		 push	 edx
  000b6	8d 44 24 56	 lea	 eax, DWORD PTR _szev$130077[esp+1130]
  000ba	50		 push	 eax
  000bb	66 89 54 24 58	 mov	 WORD PTR _szev$130077[esp+1132], dx
  000c0	e8 00 00 00 00	 call	 _memset

; 72   : 		_stprintf(szev,L"&ev=%ld",ev);

  000c5	57		 push	 edi
  000c6	8d 4c 24 5c	 lea	 ecx, DWORD PTR _szev$130077[esp+1136]
  000ca	68 00 00 00 00	 push	 OFFSET ??_C@_1BA@HDAKKJKM@?$AA?$CG?$AAe?$AAv?$AA?$DN?$AA?$CF?$AAl?$AAd?$AA?$AA@
  000cf	51		 push	 ecx
  000d0	ff d6		 call	 esi
  000d2	83 c4 18	 add	 esp, 24			; 00000018H

; 73   : 		str += szev;

  000d5	8d 54 24 4c	 lea	 edx, DWORD PTR _szev$130077[esp+1120]
  000d9	52		 push	 edx
  000da	8d 4c 24 18	 lea	 ecx, DWORD PTR _str$[esp+1124]
  000de	ff 15 00 00 00
	00		 call	 DWORD PTR __imp_??Y?$basic_string@_WU?$char_traits@_W@std@@V?$allocator@_W@2@@std@@QAEAAV01@PB_W@Z
$LN1@SendAnyHtt:

; 74   : 	}
; 75   : 	_stprintf(szURL, _T("http://www.google-analytics.com/collect?v=1&tid=UA-55122790-1&cid=%s&t=event&ec=%s&ea=%s%s"),strPeerID.c_str(),ec,ea,str.c_str());

  000e4	8b 4c 24 18	 mov	 ecx, DWORD PTR _str$[esp+1124]
  000e8	b8 08 00 00 00	 mov	 eax, 8
  000ed	39 44 24 2c	 cmp	 DWORD PTR _str$[esp+1144], eax
  000f1	73 04		 jae	 SHORT $LN12@SendAnyHtt
  000f3	8d 4c 24 18	 lea	 ecx, DWORD PTR _str$[esp+1124]
$LN12@SendAnyHtt:
  000f7	39 44 24 48	 cmp	 DWORD PTR _strPeerID$[esp+1144], eax
  000fb	8b 44 24 34	 mov	 eax, DWORD PTR _strPeerID$[esp+1124]
  000ff	73 04		 jae	 SHORT $LN18@SendAnyHtt
  00101	8d 44 24 34	 lea	 eax, DWORD PTR _strPeerID$[esp+1124]
$LN18@SendAnyHtt:
  00105	51		 push	 ecx
  00106	55		 push	 ebp
  00107	53		 push	 ebx
  00108	50		 push	 eax
  00109	8d 84 24 64 02
	00 00		 lea	 eax, DWORD PTR _szURL$[esp+1136]
  00110	68 00 00 00 00	 push	 OFFSET ??_C@_1LG@ECBDHOMN@?$AAh?$AAt?$AAt?$AAp?$AA?3?$AA?1?$AA?1?$AAw?$AAw?$AAw?$AA?4?$AAg?$AAo?$AAo?$AAg?$AAl?$AAe?$AA?9?$AAa?$AAn?$AAa?$AAl?$AAy?$AAt?$AAi?$AAc?$AAs?$AA?4?$AAc?$AAo?$AAm?$AA?1@
  00115	50		 push	 eax
  00116	ff d6		 call	 esi
  00118	83 c4 18	 add	 esp, 24			; 00000018H

; 76   : 
; 77   : 	CComBSTR bstrUrl(szURL);

  0011b	8d 8c 24 54 02
	00 00		 lea	 ecx, DWORD PTR _szURL$[esp+1120]
  00122	51		 push	 ecx
  00123	ff 15 00 00 00
	00		 call	 DWORD PTR __imp__SysAllocString@4
  00129	5e		 pop	 esi
  0012a	85 c0		 test	 eax, eax
  0012c	75 05		 jne	 SHORT $LN19@SendAnyHtt
  0012e	e8 00 00 00 00	 call	 ?AtlThrowImpl@ATL@@YGXJ@Z ; ATL::AtlThrowImpl
$LN32@SendAnyHtt:
$LN19@SendAnyHtt:

; 78   : 	DWORD dwThreadId = 0;
; 79   : 	HANDLE hThread = CreateThread(NULL, 0, SendHttpStatThread, (LPVOID) bstrUrl.Detach(),0, &dwThreadId);

  00133	8d 54 24 0c	 lea	 edx, DWORD PTR _dwThreadId$[esp+1116]
  00137	52		 push	 edx
  00138	6a 00		 push	 0
  0013a	50		 push	 eax
  0013b	68 00 00 00 00	 push	 OFFSET ?SendHttpStatThread@@YGKPAX@Z ; SendHttpStatThread
  00140	6a 00		 push	 0
  00142	6a 00		 push	 0
  00144	c7 44 24 24 00
	00 00 00	 mov	 DWORD PTR _dwThreadId$[esp+1140], 0
  0014c	ff 15 00 00 00
	00		 call	 DWORD PTR __imp__CreateThread@24

; 80   : 	CloseHandle(hThread);

  00152	50		 push	 eax
  00153	ff 15 00 00 00
	00		 call	 DWORD PTR __imp__CloseHandle@4

; 81   : }

  00159	6a 00		 push	 0
  0015b	ff 15 00 00 00
	00		 call	 DWORD PTR __imp__SysFreeString@4
  00161	8d 4c 24 10	 lea	 ecx, DWORD PTR _str$[esp+1116]
  00165	ff 15 00 00 00
	00		 call	 DWORD PTR __imp_??1?$basic_string@_WU?$char_traits@_W@std@@V?$allocator@_W@2@@std@@QAE@XZ
  0016b	8d 4c 24 2c	 lea	 ecx, DWORD PTR _strPeerID$[esp+1116]
  0016f	ff 15 00 00 00
	00		 call	 DWORD PTR __imp_??1?$basic_string@_WU?$char_traits@_W@std@@V?$allocator@_W@2@@std@@QAE@XZ
$LN3@SendAnyHtt:
  00175	8b 8c 24 58 04
	00 00		 mov	 ecx, DWORD PTR __$ArrayPad$[esp+1116]
  0017c	5f		 pop	 edi
  0017d	5d		 pop	 ebp
  0017e	5b		 pop	 ebx
  0017f	33 cc		 xor	 ecx, esp
  00181	e8 00 00 00 00	 call	 @__security_check_cookie@4
  00186	81 c4 50 04 00
	00		 add	 esp, 1104		; 00000450H
  0018c	c3		 ret	 0
$LN31@SendAnyHtt:
_SendAnyHttpStat ENDP
_TEXT	ENDS
PUBLIC	?clash@Define_the_symbol__ATL_MIXED@@3UThank_you@1@A ; Define_the_symbol__ATL_MIXED::clash
;	COMDAT ?clash@Define_the_symbol__ATL_MIXED@@3UThank_you@1@A
; File c:\program files (x86)\microsoft visual studio 9.0\vc\atlmfc\include\atldef.h
_DATA	SEGMENT
?clash@Define_the_symbol__ATL_MIXED@@3UThank_you@1@A DD FLAT:??_7Thank_you@Define_the_symbol__ATL_MIXED@@6B@ ; Define_the_symbol__ATL_MIXED::clash
_DATA	ENDS
PUBLIC	?clash@Inconsistent_definition_of_symbol__ATL_MIXED@@3U_Please_define_it_the_same_throughout_your_project@1@A ; Inconsistent_definition_of_symbol__ATL_MIXED::clash
;	COMDAT ?clash@Inconsistent_definition_of_symbol__ATL_MIXED@@3U_Please_define_it_the_same_throughout_your_project@1@A
_BSS	SEGMENT
?clash@Inconsistent_definition_of_symbol__ATL_MIXED@@3U_Please_define_it_the_same_throughout_your_project@1@A DB 01H DUP (?) ; Inconsistent_definition_of_symbol__ATL_MIXED::clash
_BSS	ENDS
END
